ccopy_reg
_reconstructor
p0
(cgpr
Gpr
p1
c__builtin__
object
p2
Ntp3
Rp4
(dp5
S'rules'
p6
(dp7
S'R_DOLASNT'
p8
S'(PF11_0173) or (PFI0960w)'
p9
sS'R_GLYCt'
p10
S'(PF11_0338)'
p11
sS'R_EX_succ_LPAREN_e_RPAREN_'
p12
NsS'R_AGPAT180_ap'
p13
S'(PF14_0421)'
p14
sS'R_CTPS2'
p15
S'(PF14_0100)'
p16
sS'R_FAS240_L_ap'
p17
S'(PFB0505c) or (PFI1125c)'
p18
sS'R_EX_hdcea_LPAREN_e_RPAREN_'
p19
NsS'R_PRPPS'
p20
S'(PF13_0143) or (PF13_0157)'
p21
sS'R_NTRIR2x_mt'
p22
S'(PF07_0085)'
p23
sS'R_DSBCGT'
p24
S'(MAL8P1_17) or (PF11_0352) or (PF13_0272) or (PF14_0694) or (PFI0950w)'
p25
sS'R_AABTN'
p26
NsS'R_GPDDA3pp'
p27
S'(PF14_0060)'
p28
sS'R_PROt2r'
p29
S'(PFF1430c) or (PFL0420w) or (PFL1515c) or (PFB0435c) or (PFE0775c) or (PF11_0334)'
p30
sS'R_MI14PP'
p31
NsS'R_PYDXNK'
p32
S'(PFF0775w)'
p33
sS'R_MECDPDH2_ap'
p34
S'(PF10_0221)'
p35
sS'R_DMPPS_ap'
p36
S'(PFA0225w)'
p37
sS'R_3OAR140_ap'
p38
S'(PFI1125c)'
p39
sS'R_EX_ddca_LPAREN_e_RPAREN_'
p40
NsS'R_SMPD3l'
p41
S'(PFL1870c)'
p42
sS'R_ADCL'
p43
S'(PFI1100w)'
p44
sS'R_NO3t2rpp'
p45
S'(PFC0725c)'
p46
sS'R_EX_so4_LPAREN_e_RPAREN_'
p47
NsS'R_SMS'
p48
S'(PFF1215w)'
p49
sS'R_SPMS'
p50
S'(PF11_0301)'
p51
sS'R_PTHPS'
p52
S'(PFF1360w)'
p53
sS'R_DAGK120'
p54
S'(PF14_0681) or (PFI1485c)'
p55
sS'R_FACOAL120t2pp_ap'
p56
S'(MAL13P1_485) or (PF07_0129) or (PF14_0751) or (PF14_0761) or (PFB0685c) or (PFB0695c) or (PFC0050c) or (PFD0085c) or (PFE1250w) or (PFF0945c) or (PFL1880w) or (PFL2570w)'
p57
sS'R_DHPS2'
p58
S'(PF08_0095)'
p59
sS'R_SERt2r'
p60
S'(PFF1430c) or (PFL0420w) or (PFL1515c) or (PFB0435c) or (PFE0775c) or (PF11_0334)'
p61
sS'R_DHQTi'
p62
NsS'R_CYOR_u6m_mt'
p63
S'(PF14_0248) or (PF14_0373)'
p64
sS'R_PSSA181'
p65
S'(MAL13P1_335)'
p66
sS'R_MDH2_mt'
p67
S'(PFF0815w)'
p68
sS'R_EX_dgsn_LPAREN_e_RPAREN_'
p69
NsS'R_TRPt2r'
p70
S'(PFF1430c) or (PFL0420w) or (PFL1515c) or (PFB0435c) or (PFE0775c) or (PF11_0334)'
p71
sS'R_ACCOAtm'
p72
NsS'R_FCLT'
p73
S'(MAL13P1_326)'
p74
sS'R_INSt'
p75
S'(PFA0160c) or (MAL8P1_32) or (PF13_0252) or (PF14_0662)'
p76
sS'R_LPLIPAL2ATE180'
p77
S'(PF07_0005) or (PF07_0040) or (PF10_0379) or (PF14_0017) or (PF14_0737) or (PF14_0738)'
p78
sS'R_EX_lac_D_LPAREN_e_RPAREN_'
p79
NsS'R_R1PK'
p80
NsS'R_ASPTA_mt'
p81
S'(PFB0200c)'
p82
sS'R_ADSS'
p83
S'(PF13_0287)'
p84
sS'R_OXAHCOtex'
p85
NsS'R_FMNAT'
p86
S'(MAL13P1_292) or (PF10_0147)'
p87
sS'R_SERTRS'
p88
S'(PF07_0073) or (PFL0770w)'
p89
sS'R_NNATr'
p90
S'(PF13_0159)'
p91
sS'R_3OAS60_ap'
p92
S'(PFB0505c) or (PFF1275c)'
p93
sS'R_PPTT_mt'
p94
S'(PFB0130w)'
p95
sS'R_PPPGO_mt'
p96
S'(PF10_0275)'
p97
sS'R_EX_ser_L_LPAREN_e_RPAREN_'
p98
NsS'R_AGPAT140_ap'
p99
S'(PF14_0421)'
p100
sS'R_EX_acald_LPAREN_e_RPAREN_'
p101
NsS'R_PPP9tap'
p102
NsS'R_ACCOAtap'
p103
NsS'R_PGSA160'
p104
S'(MAL8P1_58)'
p105
sS'R_ATPH2e'
p106
S'(PF14_0297)'
p107
sS'R_3HAD80_ap'
p108
S'(PF13_0128)'
p109
sS'R_EX_fum_LPAREN_e_RPAREN_'
p110
NsS'R_OMPHHX_mt'
p111
S'(PF08_0068)'
p112
sS'R_PLIPA2A141pp'
p113
S'(PFB0410c)'
p114
sS'R_EX_ptrc_LPAREN_e_RPAREN_'
p115
NsS'R_NTD7pp'
p116
S'(PFL0305c)'
p117
sS'R_DASYN140'
p118
S'(PF14_0097)'
p119
sS'R_PAPA141pp'
p120
S'(PFC0995c)'
p121
sS'R_DGK1'
p122
S'(PFI1420w)'
p123
sS'R_CHRPL'
p124
NsS'R_SHK3Dr'
p125
NsS'R_3OAR180_ap'
p126
S'(PFI1125c)'
p127
sS'R_HIBHr'
p128
S'(PFL1940w)'
p129
sS'R_LALDO2x'
p130
S'(MAL13P1_324)'
p131
sS'R_PA141tap'
p132
NsS'R_FLDR_ap'
p133
S'(PF07_0085) or (PF11_0407) or (PFF1115w)'
p134
sS'R_LPLIPAL2G141'
p135
S'(PF07_0005) or (PF07_0040) or (PF10_0379) or (PF14_0017) or (PF14_0737) or (PF14_0738)'
p136
sS'R_SACCD2'
p137
S'(PFB0880w)'
p138
sS'R_GPIAT'
p139
S'(PFF0740c)'
p140
sS'R_3OAS120_ap'
p141
S'(PFB0505c) or (PFF1275c)'
p142
sS'R_CYSt2r'
p143
S'(PFF1430c) or (PFL0420w) or (PFL1515c) or (PFB0435c) or (PFE0775c) or (PF11_0334)'
p144
sS'R_ATPM'
p145
NsS'R_HMGLB'
p146
NsS'R_PINOS'
p147
S'(MAL13P1_82)'
p148
sS'R_MI1456PK'
p149
S'(PF13_0089)'
p150
sS'R_TRPTRS'
p151
S'(PF13_0205) or (PFL2485c)'
p152
sS'R_LPLIPAL2A180'
p153
S'(PF07_0005) or (PF07_0040) or (PF10_0379) or (PF14_0017) or (PF14_0737) or (PF14_0738)'
p154
sS'R_PLIPA2E120pp'
p155
S'(PFB0410c)'
p156
sS'R_3HAD100_ap'
p157
S'(PF13_0128)'
p158
sS'R_DDPA'
p159
NsS'R_FOLATEt'
p160
S'(MAL8P1_13) or (PF11_0172) or (PF10_0215)'
p161
sS'R_TMPPP'
p162
S'(PFF0680c)'
p163
sS'R_GUAPRT'
p164
S'(PF10_0121)'
p165
sS'R_ADCS'
p166
S'(PFI1100w)'
p167
sS'R_3OAS160_ap'
p168
S'(PFB0505c) or (PFF1275c)'
p169
sS'R_NTD9'
p170
S'(PFL0305c)'
p171
sS'R_NTD8'
p172
S'(PFL0305c)'
p173
sS'R_GUAt'
p174
S'(PFA0160c) or (MAL8P1_32) or (PF13_0252) or (PF14_0662)'
p175
sS'R_DPCOAtap'
p176
NsS'R_NTD1'
p177
S'(PFL0305c)'
p178
sS'R_EX_nac_LPAREN_e_RPAREN_'
p179
NsS'R_NTD3'
p180
S'(PFL0305c)'
p181
sS'R_NTD2'
p182
S'(PFL0305c)'
p183
sS'R_NTD5'
p184
S'(PFL0305c)'
p185
sS'R_NTD4'
p186
S'(PFL0305c)'
p187
sS'R_FAS260_ap'
p188
S'(PFB0505c) or (PFI1125c)'
p189
sS'R_NTD6'
p190
S'(PFL0305c)'
p191
sS'R_ACCOALm'
p192
S'(PFF1350c)'
p193
sS'R_LPLIPAL1E140pp'
p194
S'(PF07_0005) or (PF07_0040) or (PF10_0379) or (PF14_0017) or (PF14_0737) or (PF14_0738)'
p195
sS'R_EX_ala_L_LPAREN_e_RPAREN_'
p196
NsS'R_GLUDy'
p197
S'(PF14_0164)'
p198
sS'R_3OAS140_ap'
p199
S'(PFB0505c) or (PFF1275c)'
p200
sS'R_PDE1'
p201
S'(MAL13P1_118) or (MAL13P1_119) or (PF14_0672) or (PFL0475w)'
p202
sS'R_PDE2'
p203
S'(MAL13P1_118) or (MAL13P1_119) or (PF14_0672) or (PFL0475w)'
p204
sS'R_PAPA160pp'
p205
S'(PFC0995c)'
p206
sS'R_PDE4'
p207
S'(MAL13P1_118) or (MAL13P1_119) or (PF14_0672) or (PFL0475w)'
p208
sS'R_PDE5'
p209
S'(MAL13P1_118) or (MAL13P1_119) or (PF14_0672) or (PFL0475w)'
p210
sS'R_LPLIPAL1G120pp'
p211
S'(PF07_0005) or (PF07_0040) or (PF10_0379) or (PF14_0017) or (PF14_0737) or (PF14_0738)'
p212
sS'R_FAS180_ap'
p213
S'(PFB0505c) or (PFI1125c)'
p214
sS'R_SO4OXAtex2'
p215
NsS'R_IPDPS_ap'
p216
S'(PFA0225w)'
p217
sS'R_NADH2_u6cm_mt'
p218
S'(PFI0735c)'
p219
sS'R_G5SADr'
p220
NsS'R_DESAT18'
p221
S'(PFE0555w)'
p222
sS'R_G3PAT141_ap'
p223
S'(PF13_0100) or (PFL0620c)'
p224
sS'R_DESAT16'
p225
S'(PFE0555w)'
p226
sS'R_GFUCS'
p227
S'(PF10_0137)'
p228
sS'R_GLUt2r'
p229
S'(PFF1430c) or (PFL0420w) or (PFL1515c) or (PFB0435c) or (PFE0775c) or (PF11_0334)'
p230
sS'R_PGPP141pp'
p231
NsS'R_UGCG'
p232
S'(PF11_0427)'
p233
sS'R_PYK_ap'
p234
S'(PF10_0363)'
p235
sS'R_EX_urea_LPAREN_e_RPAREN_'
p236
NsS'R_OMMBLHX_mt'
p237
NsS'R_3MOPtmt'
p238
NsS'R_EAR121x_ap'
p239
S'(PFF0730c)'
p240
sS'R_SUCD3_u6m_mt'
p241
S'(PF10_0334)'
p242
sS'R_FACOAL100t2pp_ap'
p243
S'(MAL13P1_485) or (PF07_0129) or (PF14_0751) or (PF14_0761) or (PFB0685c) or (PFB0695c) or (PFC0050c) or (PFD0085c) or (PFE1250w) or (PFF0945c) or (PFL1880w) or (PFL2570w)'
p244
sS'R_FMETTRS'
p245
S'(MAL13P1_67)'
p246
sS'R_GLUASPtmt'
p247
NsS'R_PDXPP'
p248
NsS'R_GPDDA4pp'
p249
S'(PF14_0060)'
p250
sS'R_GLUTRS'
p251
S'(MAL13P1_281) or (PF13_0170) or (PF13_0257)'
p252
sS'R_FRUt1r'
p253
NsS'R_ASPCT'
p254
S'(MAL13P1_221)'
p255
sS'R_DOLDPP'
p256
S'(MAL8P1_202)'
p257
sS'R_ACPS1'
p258
S'(PFD0980w)'
p259
sS'R_AMMQLT8'
p260
S'(PFE1115c)'
p261
sS'R_ANS'
p262
S'(MAL13P1_319)'
p263
sS'R_EX_o2s_LPAREN_e_RPAREN_'
p264
NsS'R_GAMt1r'
p265
NsS'R_ADSL2r'
p266
S'(PFB0295w)'
p267
sS'R_HEXCt'
p268
NsS'R_THRTRS'
p269
S'(PF11_0270)'
p270
sS'R_ACP1'
p271
S'(PFI0880c)'
p272
sS'R_NTD10pp'
p273
S'(PFL0305c)'
p274
sS'R_OPHBDC_mt'
p275
NsS'R_LYSDC'
p276
S'(PFD0285c)'
p277
sS'R_TMDS'
p278
S'(PFD0830w)'
p279
sS'R_EX_his_L_LPAREN_e_RPAREN_'
p280
NsS'R_EX_thr_L_LPAREN_e_RPAREN_'
p281
NsS'R_CYSTGLUex'
p282
S'(PFF1430c) or (PFL0420w) or (PFL1515c) or (PFB0435c) or (PFE0775c) or (PF11_0334)'
p283
sS'R_LPLIPAL2E141'
p284
S'(PF07_0005) or (PF07_0040) or (PF10_0379) or (PF14_0017) or (PF14_0737) or (PF14_0738)'
p285
sS'R_LPLIPAL2E140'
p286
S'(PF07_0005) or (PF07_0040) or (PF10_0379) or (PF14_0017) or (PF14_0737) or (PF14_0738)'
p287
sS'R_HBZOPT_mt'
p288
S'(PFF0370w)'
p289
sS'R_3MOBtmt'
p290
NsS'R_GALUi'
p291
S'(MAL13P1_218)'
p292
sS'R_PSSA120'
p293
S'(MAL13P1_335)'
p294
sS'R_TPI_ap'
p295
S'(PFC0831w)'
p296
sS'R_EX_gua_LPAREN_e_RPAREN_'
p297
NsS'R_CLPNH180pp'
p298
NsS'R_ORNDC'
p299
S'(PF10_0322)'
p300
sS'R_MTAADA'
p301
S'(PF10_0289)'
p302
sS'R_GTPtmt'
p303
NsS'R_UMPK'
p304
S'(PFA0555c)'
p305
sS'R_DOLK'
p306
S'(PFA0485w)'
p307
sS'R_GF6PTA'
p308
S'(PF10_0245)'
p309
sS'R_UPP3S_ap'
p310
NsS'R_ACCOAL2'
p311
S'(PF14_0357)'
p312
sS'R_LPLIPAL2ATG160'
p313
S'(PF07_0005) or (PF07_0040) or (PF10_0379) or (PF14_0017) or (PF14_0737) or (PF14_0738)'
p314
sS'R_PROTRS'
p315
S'(PFI1240c) or (PFL0670c)'
p316
sS'R_THFGLUS'
p317
S'(PF13_0140)'
p318
sS'R_PLIPA2G120pp'
p319
S'(PFB0410c)'
p320
sS'R_EAR180x_ap'
p321
S'(PFF0730c)'
p322
sS'R_PHEt2r'
p323
S'(PFF1430c) or (PFL0420w) or (PFL1515c) or (PFB0435c) or (PFE0775c) or (PF11_0334)'
p324
sS'R_EX_4abut_LPAREN_e_RPAREN_'
p325
NsS'R_CO2tmt'
p326
NsS'R_FRD_mt'
p327
S'(PF10_0334) or (PFL0630w)'
p328
sS'R_FACOAL80t2pp_ap'
p329
S'(MAL13P1_485) or (PF07_0129) or (PF14_0751) or (PF14_0761) or (PFB0685c) or (PFB0695c) or (PFC0050c) or (PFD0085c) or (PFE1250w) or (PFF0945c) or (PFL1880w) or (PFL2570w)'
p330
sS'R_TPI'
p331
S'(PF14_0378)'
p332
sS'R_ACCOAL'
p333
S'(PF14_0357)'
p334
sS'R_PAPA140pp'
p335
S'(PFC0995c)'
p336
sS'R_GRTT'
p337
S'(PF11_0295)'
p338
sS'R_EX_g6p_LPAREN_e_RPAREN_'
p339
NsS'R_PLIPA2E141pp'
p340
S'(PFB0410c)'
p341
sS'R_FACOAL140t2pp_ap'
p342
S'(MAL13P1_485) or (PF07_0129) or (PF14_0751) or (PF14_0761) or (PFB0685c) or (PFB0695c) or (PFC0050c) or (PFD0085c) or (PFE1250w) or (PFF0945c) or (PFL1880w) or (PFL2570w)'
p343
sS'R_ASPTA'
p344
S'(PFB0200c)'
p345
sS'R_NTD8pp'
p346
S'(PFL0305c)'
p347
sS'R_NDPK7'
p348
S'(PF13_0349) or (PFF0275c)'
p349
sS'R_NDPK6'
p350
S'(PF13_0349) or (PFF0275c)'
p351
sS'R_NDPK5'
p352
S'(PF13_0349) or (PFF0275c)'
p353
sS'R_NDPK4'
p354
S'(PF13_0349) or (PFF0275c)'
p355
sS'R_NDPK3'
p356
S'(PF13_0349) or (PFF0275c)'
p357
sS'R_NDPK2'
p358
S'(PF13_0349) or (PFF0275c)'
p359
sS'R_NDPK1'
p360
S'(PF13_0349) or (PFF0275c)'
p361
sS'R_LPLIPAL2A140'
p362
S'(PF07_0005) or (PF07_0040) or (PF10_0379) or (PF14_0017) or (PF14_0737) or (PF14_0738)'
p363
sS'R_DUTPDP'
p364
S'(PF11_0282)'
p365
sS'R_EX_f6p_LPAREN_e_RPAREN_'
p366
NsS'R_LPLIPAL2G161'
p367
S'(PF07_0005) or (PF07_0040) or (PF10_0379) or (PF14_0017) or (PF14_0737) or (PF14_0738)'
p368
sS'R_5AOPt2'
p369
NsS'R_GGTT'
p370
NsS'R_O2tmt'
p371
NsS'R_PCt'
p372
NsS'R_MI1345PP'
p373
S'(PF07_0024) or (PF13_0285)'
p374
sS'R_EX_folate1'
p375
NsS'R_EX_folate2'
p376
NsS'R_EX_folate3'
p377
NsS'R_EX_folate4'
p378
NsS'R_LPLIPAL2ATE140'
p379
S'(PF07_0005) or (PF07_0040) or (PF10_0379) or (PF14_0017) or (PF14_0737) or (PF14_0738)'
p380
sS'R_OCTDPtmt'
p381
NsS'R_EX_thymd_LPAREN_e_RPAREN_'
p382
NsS'R_Htap'
p383
NsS'R_NTD1pp'
p384
S'(PFL0305c)'
p385
sS'R_EX_dag'
p386
NsS'R_PDX5POi'
p387
S'(PF14_0570)'
p388
sS'R_GLYC3Ptmt'
p389
NsS'R_LPLIPAL2G160'
p390
S'(PF07_0005) or (PF07_0040) or (PF10_0379) or (PF14_0017) or (PF14_0737) or (PF14_0738)'
p391
sS'R_ENO'
p392
S'(PF10_0155)'
p393
sS'R_OMBZLM_mt'
p394
S'(PFB0220w)'
p395
sS'R_AGPAT120_ap'
p396
S'(PF14_0421)'
p397
sS'R_lipid6'
p398
NsS'R_TYRTA'
p399
S'(PFB0200c)'
p400
sS'R_HXAtap'
p401
NsS'R_G3PAT160_ap'
p402
S'(PF13_0100) or (PFL0620c)'
p403
sS'R_GNK'
p404
S'(PF13_0269)'
p405
sS'R_EX_phe_L_LPAREN_e_RPAREN_'
p406
NsS'R_EX_inost_LPAREN_e_RPAREN_'
p407
NsS'R_R07456'
p408
S'(PF11_0169)'
p409
sS'R_CLPNH120pp'
p410
NsS'R_NDPK8'
p411
S'(PF13_0349) or (PFF0275c)'
p412
sS'R_2_1_1_103'
p413
NsS'R_GND'
p414
S'(PF14_0520)'
p415
sS'R_AMETt2'
p416
S'(PFF1430c) or (PFL0420w) or (PFL1515c) or (PFB0435c) or (PFE0775c) or (PF11_0334)'
p417
sS'R_PMANM'
p418
S'(PF10_0169)'
p419
sS'R_PYDXK'
p420
S'(PFF0775w)'
p421
sS'R_LPLIPAL1E120pp'
p422
S'(PF07_0005) or (PF07_0040) or (PF10_0379) or (PF14_0017) or (PF14_0737) or (PF14_0738)'
p423
sS'R_PSD180'
p424
S'(PFI1370c)'
p425
sS'R_ACONTac'
p426
S'(PF13_0229)'
p427
sS'R_FACOAL60t2pp_ap'
p428
S'(MAL13P1_485) or (PF07_0129) or (PF14_0751) or (PF14_0761) or (PFB0685c) or (PFB0695c) or (PFC0050c) or (PFD0085c) or (PFE1250w) or (PFF0945c) or (PFL1880w) or (PFL2570w)'
p429
sS'R_MTHFC'
p430
S'(PFF1490w)'
p431
sS'R_ADSL1r'
p432
S'(PFB0295w)'
p433
sS'R_NAMNPP'
p434
S'(PFF1410c)'
p435
sS'R_GLCNACPT'
p436
S'(PFC0935c)'
p437
sS'R_THRGLNexR'
p438
S'(PFF1430c) or (PFL0420w) or (PFL1515c) or (PFB0435c) or (PFE0775c) or (PF11_0334)'
p439
sS'R_LPLIPAL2A141'
p440
S'(PF07_0005) or (PF07_0040) or (PF10_0379) or (PF14_0017) or (PF14_0737) or (PF14_0738)'
p441
sS'R_1_7_1_3_mt'
p442
S'(PF13_0353)'
p443
sS'R_GTHRDtmt'
p444
NsS'R_EX_lys_L_LPAREN_e_RPAREN_'
p445
NsS'R_EX_gthox_LPAREN_e_RPAREN_'
p446
NsS'R_3HAD120_ap'
p447
S'(PF13_0128)'
p448
sS'R_EX_ade_LPAREN_e_RPAREN_'
p449
NsS'R_EX_phosphatidyl2'
p450
NsS'R_ASPTRS'
p451
S'(PFA0145c) or (PFE0715w)'
p452
sS'R_EX_phosphatidyl1'
p453
NsS'R_GLYtmt'
p454
NsS'R_3OAR100_ap'
p455
S'(PFI1125c)'
p456
sS'R_ATPADPex_mt'
p457
S'(PF10_0366) or (PF10_0051)'
p458
sS'R_MI145P6K'
p459
S'(PF13_0089)'
p460
sS'R_LPLIPAL2A161'
p461
S'(PF07_0005) or (PF07_0040) or (PF10_0379) or (PF14_0017) or (PF14_0737) or (PF14_0738)'
p462
sS'R_SO4ti'
p463
NsS'R_AHCi'
p464
S'(PFE1050w)'
p465
sS'R_PPNCL2'
p466
S'(PF11_0036) or (PFD0610w)'
p467
sS'R_PGPP140'
p468
NsS'R_PGPP141'
p469
NsS'R_3OAR60_ap'
p470
S'(PFI1125c)'
p471
sS'R_EX_leu_L_LPAREN_e_RPAREN_'
p472
NsS'R_GAM6Pt'
p473
NsS'R_DOLPMT4'
p474
S'(MAL13P1_210)'
p475
sS'R_NADK'
p476
NsS'R_H2Ot'
p477
S'(PF11_0338)'
p478
sS'R_PLIPA2G180pp'
p479
S'(PFB0410c)'
p480
sS'R_FORt'
p481
NsS'R_GLYCL_mt'
p482
S'(PF13_0345) and  ((PF08_0066) or (PFL1550w)) '
p483
sS'R_Ht'
p484
NsS'R_SELCYSS'
p485
S'(PFL0255c)'
p486
sS'R_EX_nh4_LPAREN_e_RPAREN_'
p487
NsS'R_ALCD19_D'
p488
S'(MAL13P1_324)'
p489
sS'R_LGTHL'
p490
S'(PF11_0145) or (PFF0230c)'
p491
sS'R_EX_dca_LPAREN_e_RPAREN_'
p492
NsS'R_VALTA'
p493
S'(PF14_0557)'
p494
sS'R_PSSA161'
p495
S'(MAL13P1_335)'
p496
sS'R_EX_cholesterol'
p497
NsS'R_G3PD1ir_ap'
p498
S'(PF11_0157)'
p499
sS'R_NADPHtap'
p500
NsS'R_PGMT_2'
p501
S'(PF10_0122)'
p502
sS'R_G3PD_mt'
p503
S'(PFC0275w)'
p504
sS'R_EX_gthrd_LPAREN_e_RPAREN_'
p505
NsS'R_KAT3'
p506
S'(PF14_0484)'
p507
sS'R_KAT2'
p508
S'(PF14_0484)'
p509
sS'R_HETZK'
p510
S'(PFF1335c) or (PFL1920c)'
p511
sS'R_KAT7'
p512
S'(PF14_0484)'
p513
sS'R_KAT6'
p514
S'(PF14_0484)'
p515
sS'R_KAT5'
p516
S'(PF14_0484)'
p517
sS'R_KAT4'
p518
S'(PF14_0484)'
p519
sS'R_EX_trp_L_LPAREN_e_RPAREN_'
p520
NsS'R_KAT8'
p521
S'(PF14_0484)'
p522
sS'R_DPCOAK_ap'
p523
S'(PF14_0415)'
p524
sS'R_LPLIPAL1A181pp'
p525
S'(PF07_0005) or (PF07_0040) or (PF10_0379) or (PF14_0017) or (PF14_0737) or (PF14_0738)'
p526
sS'R_CLPNH140pp'
p527
NsS'R_GLUCYS'
p528
S'(PFI0925w)'
p529
sS'R_PSP_Lp'
p530
S'(PFI0880c)'
p531
sS'R_CHOLtu'
p532
S'(PFL0620c)'
p533
sS'R_LPLIPAL1E161pp'
p534
S'(PF07_0005) or (PF07_0040) or (PF10_0379) or (PF14_0017) or (PF14_0737) or (PF14_0738)'
p535
sS'R_PGM'
p536
S'(PF11_0208) or (PFD0660w)'
p537
sS'R_PGL'
p538
S'(PF14_0511)'
p539
sS'R_PGK'
p540
S'(PFI1105w)'
p541
sS'R_PGI'
p542
S'(PF14_0341)'
p543
sS'R_3OAS121_ap'
p544
S'(PFB0505c) or (PFF1275c)'
p545
sS'R_2_7_8_3'
p546
S'(PFF1210w)'
p547
sS'R_O2tap'
p548
NsS'R_DM_4HBA'
p549
NsS'R_NO3tmt'
p550
NsS'R_ETHAt2pp'
p551
NsS'R_PYDXNtr'
p552
NsS'R_PGPP161pp'
p553
NsS'R_PIPLC'
p554
S'(PF10_0132)'
p555
sS'R_3OAR160_ap'
p556
S'(PFI1125c)'
p557
sS'R_EX_pi_LPAREN_e_RPAREN_'
p558
NsS'R_CHOLK'
p559
S'(PF14_0020)'
p560
sS'R_DURIPP'
p561
S'(PFE0660c)'
p562
sS'R_Htmt'
p563
NsS'R_NTD2pp'
p564
S'(PFL0305c)'
p565
sS'R_3DSPHR'
p566
S'(PFD0465c)'
p567
sS'R_GPDDA5pp'
p568
S'(PF14_0060)'
p569
sS'R_UP4UH1'
p570
S'(PFE1035c)'
p571
sS'R_GMPS2'
p572
S'(PF10_0123)'
p573
sS'R_FAS100_ap'
p574
S'(PFB0505c) or (PFI1125c)'
p575
sS'R_EX_o2_LPAREN_e_RPAREN_'
p576
NsS'R_DAGK140'
p577
S'(PF14_0681) or (PFI1485c)'
p578
sS'R_DAGK141'
p579
S'(PF14_0681) or (PFI1485c)'
p580
sS'R_SHKK'
p581
S'(PFB0280w)'
p582
sS'R_PSD181'
p583
S'(PFI1370c)'
p584
sS'R_TRDR'
p585
S'(PFI1170c)'
p586
sS'R_4HBAtmt'
p587
NsS'R_HYXNt'
p588
S'(PFA0160c) or (MAL8P1_32) or (PF13_0252) or (PF14_0662)'
p589
sS'R_ATPHs'
p590
NsS'R_PAPA180pp'
p591
S'(PFC0995c)'
p592
sS'R_GUACYC'
p593
S'(MAL13P1_301) or (PF11_0395)'
p594
sS'R_THRt2r'
p595
S'(PFF1430c) or (PFL0420w) or (PFL1515c) or (PFB0435c) or (PFE0775c) or (PF11_0334)'
p596
sS'R_NADTRHD'
p597
S'(PF14_0508)'
p598
sS'R_GLCt1r'
p599
S'(PFB0210c)'
p600
sS'R_NDP4'
p601
S'(MAL13P1_248) or (PF14_0297)'
p602
sS'R_NDP3'
p603
S'(MAL13P1_248) or (PF14_0297)'
p604
sS'R_LPLIPAL2ATE120'
p605
S'(PF07_0005) or (PF07_0040) or (PF10_0379) or (PF14_0017) or (PF14_0737) or (PF14_0738)'
p606
sS'R_CYOOm_mt'
p607
S'COI or (COXIII) or (PF14_0288) or (PF14_0331) or (PF14_0721) or (PFI1365w) or (PFI1375w) '
p608
sS'R_EX_h_LPAREN_e_RPAREN_'
p609
NsS'R_DMPPtap'
p610
NsS'R_PLIPA2E180pp'
p611
S'(PFB0410c)'
p612
sS'R_AGPAT161_ap'
p613
S'(PF14_0421)'
p614
sS'R_EX_cit_LPAREN_e_RPAREN_'
p615
NsS'R_PLIPA2E181pp'
p616
S'(PFB0410c)'
p617
sS'R_PGSA161'
p618
S'(MAL8P1_58)'
p619
sS'R_DOLPMT2'
p620
S'(MAL13P1_210)'
p621
sS'R_DOLPMT3'
p622
S'(MAL13P1_210)'
p623
sS'R_GCHOLAt'
p624
NsS'R_DOLPMT1'
p625
S'(MAL13P1_210)'
p626
sS'R_IPDPtap'
p627
NsS'R_PYDAMtr'
p628
NsS'R_CYSTSERex'
p629
S'(PFF1430c) or (PFL0420w) or (PFL1515c) or (PFB0435c) or (PFE0775c) or (PF11_0334)'
p630
sS'R_3OAS181_ap'
p631
S'(PFB0505c) or (PFF1275c)'
p632
sS'R_LDH_L'
p633
S'(PF13_0141) or (PF13_0144)'
p634
sS'R_GPDDA1pp'
p635
S'(PF14_0060)'
p636
sS'R_MECDPS_ap'
p637
S'(PFB0420w)'
p638
sS'R_CPPPG3tap'
p639
NsS'R_EX_lac_L_LPAREN_e_RPAREN_'
p640
NsS'R_EX_val_L_LPAREN_e_RPAREN_'
p641
NsS'R_FACOAL141t2pp_ap'
p642
S'(MAL13P1_485) or (PF07_0129) or (PF14_0751) or (PF14_0761) or (PFB0685c) or (PFB0695c) or (PFC0050c) or (PFD0085c) or (PFE1250w) or (PFF0945c) or (PFL1880w) or (PFL2570w)'
p643
sS'R_DAGCPT'
p644
S'(PFF1375c)'
p645
sS'R_AKGtmt'
p646
S'(PF08_0031)'
p647
sS'R_OMMBLHX3_mt'
p648
NsS'R_ASPt2r'
p649
S'(PFF1430c) or (PFL0420w) or (PFL1515c) or (PFB0435c) or (PFE0775c) or (PF11_0334)'
p650
sS'R_EAR161x_ap'
p651
S'(PFF0730c)'
p652
sS'R_MANt1r'
p653
NsS'R_PHEMEtmt'
p654
NsS'R_NADS2'
p655
S'(PFI1310w)'
p656
sS'R_PI45BPP'
p657
S'(PF10_0132)'
p658
sS'R_NTD6pp'
p659
S'(PFL0305c)'
p660
sS'R_EX_h2o2_LPAREN_e_RPAREN_'
p661
NsS'R_G3PAT180_ap'
p662
S'(PF13_0100) or (PFL0620c)'
p663
sS'R_TALA'
p664
NsS'R_TYRLtmt'
p665
NsS'R_PAPt'
p666
S'(PFA0160c) or (MAL8P1_32) or (PF13_0252) or (PF14_0662)'
p667
sS'R_ALAS_mt'
p668
S'(PFL2210w)'
p669
sS'R_SUCOAS_mt'
p670
S'(PF14_0295)'
p671
sS'R_PAPA120pp'
p672
S'(PFC0995c)'
p673
sS'R_EX_met_L_LPAREN_e_RPAREN_'
p674
NsS'R_DM_HMFURN'
p675
NsS'R_PAPA141'
p676
S'(PFC0995c)'
p677
sS'R_PAPA140'
p678
S'(PFC0995c)'
p679
sS'R_EX_uri_LPAREN_e_RPAREN_'
p680
NsS'R_LPLIPAL2ATE141'
p681
S'(PF07_0005) or (PF07_0040) or (PF10_0379) or (PF14_0017) or (PF14_0737) or (PF14_0738)'
p682
sS'R_HEX1'
p683
S'(PFF1155w)'
p684
sS'R_EX_mal_L_LPAREN_e_RPAREN_'
p685
NsS'R_HEX7'
p686
S'(PFF1155w)'
p687
sS'R_TMDPK'
p688
S'(PFI1195c)'
p689
sS'R_FUM_mt'
p690
S'(PFI1340w)'
p691
sS'R_HEX8'
p692
S'(PFF1155w)'
p693
sS'R_3OAR120_ap'
p694
S'(PFI1125c)'
p695
sS'R_PIN3K'
p696
S'(PFE0765w)'
p697
sS'R_PLIPA2G181pp'
p698
S'(PFB0410c)'
p699
sS'R_DASYN141'
p700
S'(PF14_0097)'
p701
sS'R_ADNt'
p702
S'(PFA0160c) or (MAL8P1_32) or (PF13_0252) or (PF14_0662)'
p703
sS'R_PUNP6'
p704
S'(PFE0660c)'
p705
sS'R_PUNP1'
p706
S'(PFE0660c)'
p707
sS'R_PUNP3'
p708
S'(PFE0660c)'
p709
sS'R_PUNP2'
p710
S'(PFE0660c)'
p711
sS'R_FACOAL180t2pp_ap'
p712
S'(MAL13P1_485) or (PF07_0129) or (PF14_0751) or (PF14_0761) or (PFB0685c) or (PFB0695c) or (PFC0050c) or (PFD0085c) or (PFE1250w) or (PFF0945c) or (PFL1880w) or (PFL2570w)'
p713
sS'R_PGPP181pp'
p714
NsS'R_GLNS'
p715
S'(PFI1110w)'
p716
sS'R_ALALtmt'
p717
NsS'R_COAtap'
p718
NsS'R_DGSNt'
p719
S'(PFA0160c) or (MAL8P1_32) or (PF13_0252) or (PF14_0662)'
p720
sS'R_HISTRS'
p721
S'(PF14_0428)'
p722
sS'R_MLTHFtmt'
p723
NsS'R_PUNP4'
p724
S'(PFE0660c)'
p725
sS'R_MALTt1r'
p726
NsS'R_NTD5pp'
p727
S'(PFL0305c)'
p728
sS'R_ADEt'
p729
S'(PFA0160c) or (MAL8P1_32) or (PF13_0252) or (PF14_0662) or (PF13_0352)'
p730
sS'R_LPLIPAL1A180pp'
p731
S'(PF07_0005) or (PF07_0040) or (PF10_0379) or (PF14_0017) or (PF14_0737) or (PF14_0738)'
p732
sS'R_IMPD'
p733
S'(PFI1020c)'
p734
sS'R_EX_pro_L_LPAREN_e_RPAREN_'
p735
NsS'R_EX_xmp_LPAREN_e_RPAREN_'
p736
NsS'R_CLPNH141pp'
p737
NsS'R_COA1tap'
p738
NsS'R_GPDDA5'
p739
S'(PF14_0060)'
p740
sS'R_DXYL5Ptmt'
p741
NsS'R_GPDDA3'
p742
S'(PF14_0060)'
p743
sS'R_GPDDA2'
p744
S'(PF14_0060)'
p745
sS'R_GPDDA1'
p746
S'(PF14_0060)'
p747
sS'R_COA2tap'
p748
NsS'R_GTHOXti'
p749
S'(PFA0590w)'
p750
sS'R_FUMtmt'
p751
NsS'R_3OAR40_ap'
p752
S'(PFI1125c)'
p753
sS'R_EAR60x_ap'
p754
S'(PFF0730c)'
p755
sS'R_GAPD'
p756
S'(PF14_0598)'
p757
sS'R_METAT'
p758
S'(PFI1090w)'
p759
sS'R_H2O2tmt'
p760
NsS'R_RNDR4'
p761
S'(PF10_0154) or (PF14_0053) or (PF14_0352)'
p762
sS'R_SO4HCOtex'
p763
NsS'R_RNDR2'
p764
S'(PF10_0154) or (PF14_0053) or (PF14_0352)'
p765
sS'R_RNDR3'
p766
S'(PF10_0154) or (PF14_0053) or (PF14_0352)'
p767
sS'R_RNDR1'
p768
S'(PF10_0154) or (PF14_0053) or (PF14_0352)'
p769
sS'R_LPLIPAL1G180pp'
p770
S'(PF07_0005) or (PF07_0040) or (PF10_0379) or (PF14_0017) or (PF14_0737) or (PF14_0738)'
p771
sS'R_EX_cytd_LPAREN_e_RPAREN_'
p772
NsS'R_NH4tap'
p773
NsS'R_LPLIPAL2ATE161'
p774
S'(PF07_0005) or (PF07_0040) or (PF10_0379) or (PF14_0017) or (PF14_0737) or (PF14_0738)'
p775
sS'R_PYK'
p776
NsS'R_ETHAK'
p777
S'(PF11_0257)'
p778
sS'R_CHORS'
p779
S'(PFF1105c)'
p780
sS'R_CPPPGO'
p781
S'(PF11_0436)'
p782
sS'R_EX_gsn_LPAREN_e_RPAREN_'
p783
NsS'R_CPPPGO_mt'
p784
S'(PF11_0436)'
p785
sS'R_DHORTS'
p786
S'(PF14_0697)'
p787
sS'R_NTD7'
p788
S'(PFL0305c)'
p789
sS'R_AKGt2r'
p790
NsS'R_HCO3E'
p791
S'(PF11_0410)'
p792
sS'R_FEROpp'
p793
NsS'R_RIBFLVt2'
p794
NsS'R_ACGS'
p795
S'(PFA0465c)'
p796
sS'R_3HAD181_ap'
p797
S'(PF13_0128)'
p798
sS'R_G6Pt6_2pp'
p799
NsS'R_PMTCOAtap'
p800
NsS'R_HBtr'
p801
NsS'R_EX_sbt_D_LPAREN_e_RPAREN_'
p802
NsS'R_HCO3tap'
p803
NsS'R_LPLIPAL2G140'
p804
S'(PF07_0005) or (PF07_0040) or (PF10_0379) or (PF14_0017) or (PF14_0737) or (PF14_0738)'
p805
sS'R_CHSTEROLt'
p806
NsS'R_YUMPS'
p807
S'(PF10_0175) or (PFB0890c) or (PFE1080w) or (PFI0420c) or (PFI0685w) or (PFL1350w)'
p808
sS'R_PNTK'
p809
S'(PF14_0200) or (PF14_0354)'
p810
sS'R_EX_gam_LPAREN_e_RPAREN_'
p811
NsS'R_THMDP'
p812
S'(PFI0880c)'
p813
sS'R_DXPRIi_ap'
p814
S'(PF14_0641)'
p815
sS'R_PGSA120'
p816
S'(MAL8P1_58)'
p817
sS'R_3HAD40_ap'
p818
S'(PF13_0128)'
p819
sS'R_GTHRDti'
p820
S'(PFA0590w)'
p821
sS'R_LPLIPAL2ATG161'
p822
S'(PF07_0005) or (PF07_0040) or (PF10_0379) or (PF14_0017) or (PF14_0737) or (PF14_0738)'
p823
sS'R_PTPATi'
p824
S'(PF07_0018)'
p825
sS'R_LPLIPAL2E120'
p826
S'(PF07_0005) or (PF07_0040) or (PF10_0379) or (PF14_0017) or (PF14_0737) or (PF14_0738)'
p827
sS'R_PPC'
p828
S'(PF14_0246)'
p829
sS'R_GTPCI'
p830
S'(PFL1155w)'
p831
sS'R_PPCDC'
p832
S'(MAL8P1_81)'
p833
sS'R_O2St'
p834
NsS'R_G3PAT120_ap'
p835
S'(PF13_0100) or (PFL0620c)'
p836
sS'R_PPPG9tmt'
p837
NsS'R_T2DECAI_ap'
p838
S'(PF13_0128)'
p839
sS'R_THRGLYexR'
p840
S'(PFF1430c) or (PFL0420w) or (PFL1515c) or (PFB0435c) or (PFE0775c) or (PF11_0334)'
p841
sS'R_COA6tap'
p842
NsS'R_ALATRS'
p843
S'(PF13_0354)'
p844
sS'R_PGSA140'
p845
S'(MAL8P1_58)'
p846
sS'R_PGSA141'
p847
S'(MAL8P1_58)'
p848
sS'R_EX_co2_LPAREN_e_RPAREN_'
p849
NsS'R_EX_inositol'
p850
NsS'R_DSBGGT'
p851
S'(MAL8P1_17) or (PF11_0352) or (PF13_0272) or (PF14_0694) or (PFI0950w)'
p852
sS'R_5AOPtmt'
p853
NsS'R_SPMDt2'
p854
NsS'R_ASNTRS'
p855
S'(PFB0525w) or (PFE0475w) or (PFE0715w)'
p856
sS'R_PI4P5K'
p857
NsS'R_EX_ttdca_LPAREN_e_RPAREN_'
p858
NsS'R_DTMPK'
p859
S'(PFL2465c)'
p860
sS'R_OCDCEAtr'
p861
NsS'R_GPDDA2pp'
p862
S'(PF14_0060)'
p863
sS'R_AGPAT141_ap'
p864
S'(PF14_0421)'
p865
sS'R_EX_adn_LPAREN_e_RPAREN_'
p866
NsS'R_EX_no3_LPAREN_e_RPAREN_'
p867
NsS'R_PPAt'
p868
NsS'R_DSAT'
p869
S'(PFE0405c)'
p870
sS'R_COA3tap'
p871
NsS'R_PAPA181pp'
p872
S'(PFC0995c)'
p873
sS'R_ALAt2r'
p874
S'(PFF1430c) or (PFL0420w) or (PFL1515c) or (PFB0435c) or (PFE0775c) or (PF11_0334)'
p875
sS'R_DASYN120'
p876
S'(PF14_0097)'
p877
sS'R_EX_nicotinamide1'
p878
NsS'R_SERPT'
p879
S'(PF14_0155)'
p880
sS'R_LPLIPAL1E141pp'
p881
S'(PF07_0005) or (PF07_0040) or (PF10_0379) or (PF14_0017) or (PF14_0737) or (PF14_0738)'
p882
sS'R_URIt'
p883
S'(PFA0160c) or (MAL8P1_32) or (PF13_0252) or (PF14_0662)'
p884
sS'R_THZPSN_mt'
p885
S'(MAL7P1_150) or (PF07_0068)'
p886
sS'R_METLEUex'
p887
S'(PFF1430c) or (PFL0420w) or (PFL1515c) or (PFB0435c) or (PFE0775c) or (PF11_0334)'
p888
sS'R_LYSt2r'
p889
S'(PFF1430c) or (PFL0420w) or (PFL1515c) or (PFB0435c) or (PFE0775c) or (PF11_0334)'
p890
sS'R_ASNt2r'
p891
S'(PFF1430c) or (PFL0420w) or (PFL1515c) or (PFB0435c) or (PFE0775c) or (PF11_0334)'
p892
sS'R_CLPNH160pp'
p893
NsS'R_3HAD141_ap'
p894
S'(PF13_0128)'
p895
sS'R_DHQS'
p896
NsS'R_lipid9'
p897
NsS'R_PUNP5'
p898
S'(PFE0660c)'
p899
sS'R_MTHGXLt'
p900
NsS'R_3OAS141_ap'
p901
S'(PFB0505c) or (PFF1275c)'
p902
sS'R_ARGTRS'
p903
S'(PFL0900c)'
p904
sS'R_EX_glyc_LPAREN_e_RPAREN_'
p905
NsS'R_lipid1'
p906
NsS'R_3OAR181_ap'
p907
S'(PFI1125c)'
p908
sS'R_lipid2'
p909
NsS'R_lipid5'
p910
NsS'R_PUNP7'
p911
S'(PFE0660c)'
p912
sS'R_lipid7'
p913
NsS'R_SUCCtmt'
p914
NsS'R_H2O2t'
p915
NsS'R_PGPP120pp'
p916
NsS'R_DOLPMT'
p917
S'(PF11_0427)'
p918
sS'R_ILEt2r'
p919
S'(PFF1430c) or (PFL0420w) or (PFL1515c) or (PFB0435c) or (PFE0775c) or (PF11_0334)'
p920
sS'R_PPA2'
p921
S'(PF14_0541) or (PFC0710w)'
p922
sS'R_DTTPt'
p923
S'(PFA0160c) or (MAL8P1_32) or (PF13_0252) or (PF14_0662)'
p924
sS'R_ACALDt'
p925
NsS'R_EX_hdca_LPAREN_e_RPAREN_'
p926
NsS'R_EX_fru_LPAREN_e_RPAREN_'
p927
NsS'R_EX_arg_L_LPAREN_e_RPAREN_'
p928
NsS'R_CYTK1'
p929
S'(PFA0555c)'
p930
sS'R_RBFK'
p931
S'(MAL13P1_292)'
p932
sS'R_CYTK2'
p933
S'(PFA0555c)'
p934
sS'R_PSD161'
p935
S'(PFI1370c)'
p936
sS'R_PSD160'
p937
S'(PFI1370c)'
p938
sS'R_EX_no2_LPAREN_e_RPAREN_'
p939
NsS'R_FRTT'
p940
S'(PF11_0483)'
p941
sS'R_SBTR'
p942
S'(MAL13P1_324)'
p943
sS'R_CDPMEK_ap'
p944
S'(PFE0150c)'
p945
sS'R_TMPK'
p946
NsS'R_ACGAM6PS'
p947
NsS'R_NOt'
p948
NsS'R_GLUDxi'
p949
S'(PF08_0132)'
p950
sS'R_G3PAT161_ap'
p951
S'(PF13_0100) or (PFL0620c)'
p952
sS'R_OCDCAtr'
p953
NsS'R_PLIPA2A140pp'
p954
S'(PFB0410c)'
p955
sS'R_P5CR'
p956
S'(MAL13P1_284)'
p957
sS'R_AKP1'
p958
S'(PFL1260w)'
p959
sS'R_PUNP8'
p960
S'(PFE0660c)'
p961
sS'R_DXYL5Ptap'
p962
NsS'R_CHTNASE'
p963
S'(PF07_0009) or (PFL2510w)'
p964
sS'R_PYAM5PO'
p965
S'(PF14_0570)'
p966
sS'R_EX_man_LPAREN_e_RPAREN_'
p967
NsS'R_PPP9tmt'
p968
NsS'R_SUCD2_u6m_mt'
p969
S'(PF10_0334)'
p970
sS'R_EX_cys_L_LPAREN_e_RPAREN_'
p971
NsS'R_ARGt2r'
p972
S'(PFF1430c) or (PFL0420w) or (PFL1515c) or (PFB0435c) or (PFE0775c) or (PF11_0334)'
p973
sS'R_1_7_1_1_mt'
p974
S'(PF13_0353)'
p975
sS'R_EX_hb'
p976
NsS'R_EX_tyr_L_LPAREN_e_RPAREN_'
p977
NsS'R_INSTt2r'
p978
NsS'R_DATPHs'
p979
NsS'R_PA160tap'
p980
NsS'R_ACONTbm_mt'
p981
S'(PF13_0229)'
p982
sS'R_NADtap'
p983
NsS'R_ILETRS'
p984
S'(PF13_0179)'
p985
sS'R_PHETRS'
p986
S'(PF11_0051) or (PFA0480w) or (PFF0180w) or (PFL1540c)'
p987
sS'R_LEUTRS'
p988
S'(PF08_0011) or (PFF1095w)'
p989
sS'R_EX_ocdca_LPAREN_e_RPAREN_'
p990
NsS'R_CPPPGO_ap'
p991
S'(PF11_0436)'
p992
sS'R_GK1'
p993
S'(PFI1420w)'
p994
sS'R_PA140tap'
p995
NsS'R_GLYTRS'
p996
S'(PF14_0198)'
p997
sS'R_FAS160_ap'
p998
S'(PFB0505c) or (PFI1125c)'
p999
sS'R_ALAGLYexR'
p1000
S'(PFF1430c) or (PFL0420w) or (PFL1515c) or (PFB0435c) or (PFE0775c) or (PF11_0334)'
p1001
sS'R_EX_hxa_LPAREN_e_RPAREN_'
p1002
NsS'R_PPItmt'
p1003
NsS'R_PDE3'
p1004
S'(MAL13P1_118) or (MAL13P1_119) or (PF14_0672) or (PFL0475w)'
p1005
sS'R_EAR100x_ap'
p1006
S'(PFF0730c)'
p1007
sS'R_ATPtap'
p1008
NsS'R_GLNt2r'
p1009
S'(PFF1430c) or (PFL0420w) or (PFL1515c) or (PFB0435c) or (PFE0775c) or (PF11_0334)'
p1010
sS'R_TTDCAt'
p1011
NsS'R_EX_gam6p_LPAREN_e_RPAREN_'
p1012
NsS'R_LPLIPAL1G161pp'
p1013
S'(PF07_0005) or (PF07_0040) or (PF10_0379) or (PF14_0017) or (PF14_0737) or (PF14_0738)'
p1014
sS'R_LPLIPAL1G140pp'
p1015
S'(PF07_0005) or (PF07_0040) or (PF10_0379) or (PF14_0017) or (PF14_0737) or (PF14_0738)'
p1016
sS'R_EX_asp_L_LPAREN_e_RPAREN_'
p1017
NsS'R_3OAR141_ap'
p1018
S'(PFI1125c)'
p1019
sS'R_FACOAL181t2pp_ap'
p1020
S'(MAL13P1_485) or (PF07_0129) or (PF14_0751) or (PF14_0761) or (PFB0685c) or (PFB0695c) or (PFC0050c) or (PFD0085c) or (PFE1250w) or (PFF0945c) or (PFL1880w) or (PFL2570w)'
p1021
sS'R_LPLIPAL2E161'
p1022
S'(PF07_0005) or (PF07_0040) or (PF10_0379) or (PF14_0017) or (PF14_0737) or (PF14_0738)'
p1023
sS'R_EX_hxan_LPAREN_e_RPAREN_'
p1024
NsS'R_ACGAMPM'
p1025
S'(PF11_0311)'
p1026
sS'R_CO2t'
p1027
NsS'R_GLYt2r'
p1028
S'(PFF1430c) or (PFL0420w) or (PFL1515c) or (PFB0435c) or (PFE0775c) or (PF11_0334)'
p1029
sS'R_PLIPA2E160pp'
p1030
S'(PFB0410c)'
p1031
sS'R_PLIPA2A180pp'
p1032
S'(PFB0410c)'
p1033
sS'R_EX_xtsn_LPAREN_e_RPAREN_'
p1034
NsS'R_EX_h2o_LPAREN_e_RPAREN_'
p1035
NsS'R_PIOHex_mt'
p1036
S'(PFL0110c)'
p1037
sS'R_LPLIPAL2ATG120'
p1038
S'(PF07_0005) or (PF07_0040) or (PF10_0379) or (PF14_0017) or (PF14_0737) or (PF14_0738)'
p1039
sS'R_EX_pyr_LPAREN_e_RPAREN_'
p1040
NsS'R_CPPPG3tmt'
p1041
NsS'R_EX_ocdcea_LPAREN_e_RPAREN_'
p1042
NsS'R_EX_gly_LPAREN_e_RPAREN_'
p1043
NsS'R_CTPtap'
p1044
NsS'R_PGPP140pp'
p1045
NsS'R_PDH_ap'
p1046
S'((PF11_0256) or (PF14_0441))  and  (PF10_0407) and (PFC0170c)  and  ((PF08_0066) or (PFL1550w)) '
p1047
sS'R_CS_mt'
p1048
S'(PF10_0218)'
p1049
sS'R_EX_spmd_LPAREN_e_RPAREN_'
p1050
NsS'R_DASYN161'
p1051
S'(PF14_0097)'
p1052
sS'R_EX_fe2_LPAREN_e_RPAREN_'
p1053
NsS'R_NADHtap'
p1054
NsS'R_EAR160x_ap'
p1055
S'(PFF0730c)'
p1056
sS'R_FCLT_ap'
p1057
S'(MAL13P1_326)'
p1058
sS'R_PSCVT'
p1059
S'(PFB0280w)'
p1060
sS'R_3OAR80_ap'
p1061
S'(PFI1125c)'
p1062
sS'R_AGPAT160_ap'
p1063
S'(PF14_0421)'
p1064
sS'R_HMPK1'
p1065
S'(PFE1030c)'
p1066
sS'R_DHFS'
p1067
S'(PF13_0140)'
p1068
sS'R_METt2r'
p1069
S'(PFF1430c) or (PFL0420w) or (PFL1515c) or (PFB0435c) or (PFE0775c) or (PF11_0334)'
p1070
sS'R_PPA'
p1071
S'(PF14_0541) or (PFC0710w)'
p1072
sS'R_LEUt2r'
p1073
S'(PFF1430c) or (PFL0420w) or (PFL1515c) or (PFB0435c) or (PFE0775c) or (PF11_0334)'
p1074
sS'R_HXPRT'
p1075
S'(PF10_0121)'
p1076
sS'R_DHORtmt'
p1077
NsS'R_UPPDC1_ap'
p1078
S'(PFF0360w)'
p1079
sS'R_ORNTA'
p1080
S'(PFF0435w)'
p1081
sS'R_VALTRS'
p1082
S'(PF14_0589) or (PFC0470w)'
p1083
sS'R_EX_ac_LPAREN_e_RPAREN_'
p1084
NsS'R_FE2t'
p1085
S'(PFF0450c)'
p1086
sS'R_ASPtmt'
p1087
NsS'R_ACACT1r'
p1088
S'(PF14_0484)'
p1089
sS'R_PPPGO3'
p1090
S'(PF10_0275)'
p1091
sS'R_HMBILtap'
p1092
NsS'R_LPLIPAL2E160'
p1093
S'(PF07_0005) or (PF07_0040) or (PF10_0379) or (PF14_0017) or (PF14_0737) or (PF14_0738)'
p1094
sS'R_OCTDPS'
p1095
NsS'R_LPLIPAL1A161pp'
p1096
S'(PF07_0005) or (PF07_0040) or (PF10_0379) or (PF14_0017) or (PF14_0737) or (PF14_0738)'
p1097
sS'R_METTRS'
p1098
S'(PF10_0053) or (PF10_0340) or (PF14_0401)'
p1099
sS'R_DSBAO1'
p1100
S'(MAL8P1_17) or (PF11_0352) or (PF13_0272) or (PF14_0694) or (PFI0950w)'
p1101
sS'R_CLPNH161pp'
p1102
NsS'R_EX_homocysteine'
p1103
NsS'R_DINt'
p1104
S'(PFA0160c) or (MAL8P1_32) or (PF13_0252) or (PF14_0662)'
p1105
sS'R_GP4GH1'
p1106
S'(PFE1035c)'
p1107
sS'R_G3PAT140_ap'
p1108
S'(PF13_0100) or (PFL0620c)'
p1109
sS'R_PFK'
p1110
S'(PF11_0294) or (PFI0755c)'
p1111
sS'R_CAMPt'
p1112
S'(PFA0160c) or (MAL8P1_32) or (PF13_0252) or (PF14_0662)'
p1113
sS'R_NH4t'
p1114
S'(PF11_0338)'
p1115
sS'R_EX_ttdcea_LPAREN_e_RPAREN_'
p1116
NsS'R_EX_din_LPAREN_e_RPAREN_'
p1117
NsS'R_SUCOAS1m_mt'
p1118
S'(PF11_0097)'
p1119
sS'R_LPLIPAL2ATE181'
p1120
S'(PF07_0005) or (PF07_0040) or (PF10_0379) or (PF14_0017) or (PF14_0737) or (PF14_0738)'
p1121
sS'R_PA120tap'
p1122
NsS'R_ADPtap'
p1123
NsS'R_OIVD1_mt'
p1124
S'(PFE0225w) and (PFC0170c) and  ((PF08_0066) or (PFL1550w)) '
p1125
sS'R_PSD120'
p1126
S'(PFI1370c)'
p1127
sS'R_PPBNGS_ap'
p1128
S'(PF14_0381)'
p1129
sS'R_PMPK'
p1130
S'(PFE1030c)'
p1131
sS'R_DADNt4'
p1132
S'(PFA0160c) or (MAL8P1_32) or (PF13_0252) or (PF14_0662)'
p1133
sS'R_PLIPA2G160pp'
p1134
S'(PFB0410c)'
p1135
sS'R_DASYN160'
p1136
S'(PF14_0097)'
p1137
sS'R_OCTAt'
p1138
NsS'R_CLPNH181pp'
p1139
NsS'R_EX_octa_LPAREN_e_RPAREN_'
p1140
NsS'R_COA7tap'
p1141
NsS'R_FBA'
p1142
S'(PF14_0425)'
p1143
sS'R_GTHOr_mt'
p1144
S'(PF14_0192)'
p1145
sS'R_EX_orn_LPAREN_e_RPAREN_'
p1146
NsS'R_DRPA'
p1147
S'(PF10_0210)'
p1148
sS'R_OAAtmt'
p1149
NsS'R_EX_ile_L_LPAREN_e_RPAREN_'
p1150
NsS'R_OMPDC'
p1151
S'(PF10_0225)'
p1152
sS'R_EX_thm_LPAREN_e_RPAREN_'
p1153
NsS'R_PYRt2r'
p1154
NsS'R_PTD1INOt'
p1155
NsS'R_PItap'
p1156
NsS'R_3HAD161_ap'
p1157
S'(PF13_0128)'
p1158
sS'R_PLIPA2E140pp'
p1159
S'(PFB0410c)'
p1160
sS'R_GPIMTer_L'
p1161
NsS'R_AP4AH1'
p1162
S'(PFE1035c)'
p1163
sS'R_PEFLIP'
p1164
NsS'R_NH4tmt'
p1165
NsS'R_COA9tap'
p1166
NsS'R_MTHFD'
p1167
S'(PFF1490w)'
p1168
sS'R_3OAS100_ap'
p1169
S'(PFB0505c) or (PFF1275c)'
p1170
sS'R_GTHS'
p1171
S'(PFE0605c)'
p1172
sS'R_NTD9pp'
p1173
S'(PFL0305c)'
p1174
sS'R_PPCK'
p1175
S'(PF13_0234)'
p1176
sS'R_G3PD1ir'
p1177
S'(PFL0780w)'
p1178
sS'R_ADMDC'
p1179
S'(PF10_0322)'
p1180
sS'R_HXAt'
p1181
NsS'R_3OAS161_ap'
p1182
S'(PFB0505c) or (PFF1275c)'
p1183
sS'R_PGPP120'
p1184
NsS'R_LPLIPAL1G160pp'
p1185
S'(PF07_0005) or (PF07_0040) or (PF10_0379) or (PF14_0017) or (PF14_0737) or (PF14_0738)'
p1186
sS'R_EX_no_LPAREN_e_RPAREN_'
p1187
NsS'R_ACGPID'
p1188
S'(PFF1190c)'
p1189
sS'R_KAS14_ap'
p1190
S'(PFB0505c) or (PFF1275c)'
p1191
sS'R_H2Otap'
p1192
NsS'R_MDHc'
p1193
S'(PFF0895w)'
p1194
sS'R_F6Pt6_2pp'
p1195
NsS'R_PGMT'
p1196
S'(PF10_0122)'
p1197
sS'R_EX_xan_LPAREN_e_RPAREN_'
p1198
NsS'R_ARGN'
p1199
S'(PFI0320w)'
p1200
sS'R_GPDDA4'
p1201
S'(PF14_0060)'
p1202
sS'R_MET_SLV'
p1203
NsS'R_lipid10'
p1204
NsS'R_THFtmt'
p1205
NsS'R_DASYN180'
p1206
S'(PF14_0097)'
p1207
sS'R_NCAMUP'
p1208
NsS'R_LEUTA'
p1209
S'(PF14_0557)'
p1210
sS'R_LPLIPAL1A120pp'
p1211
S'(PF07_0005) or (PF07_0040) or (PF10_0379) or (PF14_0017) or (PF14_0737) or (PF14_0738)'
p1212
sS'R_IPDPtmt'
p1213
NsS'R_PLIPA2G140pp'
p1214
S'(PFB0410c)'
p1215
sS'R_GSNt'
p1216
S'(PFA0160c) or (MAL8P1_32) or (PF13_0252) or (PF14_0662)'
p1217
sS'R_GDPtmt'
p1218
NsS'R_DADA'
p1219
S'(PF10_0289)'
p1220
sS'R_HDCAtr'
p1221
NsS'R_ACt2r'
p1222
NsS'R_GTHP_mt'
p1223
S'(PFL0595c)'
p1224
sS'R_PSSA140'
p1225
S'(MAL13P1_335)'
p1226
sS'R_PSSA141'
p1227
S'(MAL13P1_335)'
p1228
sS'R_PLIPA2E161pp'
p1229
S'(PFB0410c)'
p1230
sS'R_LPLIPAL1G181pp'
p1231
S'(PF07_0005) or (PF07_0040) or (PF10_0379) or (PF14_0017) or (PF14_0737) or (PF14_0738)'
p1232
sS'R_PLIPA2A181pp'
p1233
S'(PFB0410c)'
p1234
sS'R_MCOATA_ap'
p1235
S'(PF13_0066)'
p1236
sS'R_PLIPA2A160pp'
p1237
S'(PFB0410c)'
p1238
sS'R_3OAR121_ap'
p1239
S'(PFI1125c)'
p1240
sS'R_CGMPt'
p1241
S'(PFA0160c) or (MAL8P1_32) or (PF13_0252) or (PF14_0662)'
p1242
sS'R_EX_ura_LPAREN_e_RPAREN_'
p1243
NsS'R_LPLIPAL2E181'
p1244
S'(PF07_0005) or (PF07_0040) or (PF10_0379) or (PF14_0017) or (PF14_0737) or (PF14_0738)'
p1245
sS'R_LPLIPAL2E180'
p1246
S'(PF07_0005) or (PF07_0040) or (PF10_0379) or (PF14_0017) or (PF14_0737) or (PF14_0738)'
p1247
sS'R_FAS120_ap'
p1248
S'(PFB0505c) or (PFI1125c)'
p1249
sS'R_PHEMEtap'
p1250
NsS'R_AGPAT181_ap'
p1251
S'(PF14_0421)'
p1252
sS'R_SUCCt2r'
p1253
NsS'R_LPLIPAL2G120'
p1254
S'(PF07_0005) or (PF07_0040) or (PF10_0379) or (PF14_0017) or (PF14_0737) or (PF14_0738)'
p1255
sS'R_biomass'
p1256
NsS'R_HISt2r'
p1257
S'(PFF1430c) or (PFL0420w) or (PFL1515c) or (PFB0435c) or (PFE0775c) or (PF11_0334)'
p1258
sS'R_KAT1'
p1259
S'(PF14_0484)'
p1260
sS'R_GHMT2r'
p1261
S'(PF14_0534) or (PFL1720w)'
p1262
sS'R_ACCOAC_ap'
p1263
S'(PF14_0664)'
p1264
sS'R_LCAT1e'
p1265
S'(PFF1420w)'
p1266
sS'R_EX_glu_L_LPAREN_e_RPAREN_'
p1267
NsS'R_LPLIPAL2ATG181'
p1268
S'(PF07_0005) or (PF07_0040) or (PF10_0379) or (PF14_0017) or (PF14_0737) or (PF14_0738)'
p1269
sS'R_EX_pnto_R_LPAREN_e_RPAREN_'
p1270
NsS'R_EAR120x_ap'
p1271
S'(PFF0730c)'
p1272
sS'R_TKT1'
p1273
S'(PFF0530w)'
p1274
sS'R_TKT2'
p1275
S'(PFF0530w)'
p1276
sS'R_URAt'
p1277
S'(PFA0160c) or (MAL8P1_32) or (PF13_0252) or (PF14_0662)'
p1278
sS'R_NTD11'
p1279
S'(PFL0305c)'
p1280
sS'R_NTD10'
p1281
S'(PFL0305c)'
p1282
sS'R_PIN4K'
p1283
S'(PFE0485w)'
p1284
sS'R_NTD12'
p1285
S'(PFL0305c)'
p1286
sS'R_PLIPA2A120pp'
p1287
S'(PFB0410c)'
p1288
sS'R_LPLIPAL1A141pp'
p1289
S'(PF07_0005) or (PF07_0040) or (PF10_0379) or (PF14_0017) or (PF14_0737) or (PF14_0738)'
p1290
sS'R_LPLIPAL1A160pp'
p1291
S'(PF07_0005) or (PF07_0040) or (PF10_0379) or (PF14_0017) or (PF14_0737) or (PF14_0738)'
p1292
sS'R_COA4tap'
p1293
NsS'R_DMQMT_mt'
p1294
S'(MAL7P1_130)'
p1295
sS'R_CITt2r'
p1296
NsS'R_AKGDH_mt'
p1297
S'((PF08_0045) or (PF13_0070))  and  (PF13_0121)  and  ((PF08_0066) or (PFL1550w)) '
p1298
sS'R_DESAT14'
p1299
S'(PFE0555w)'
p1300
sS'R_DAGK180'
p1301
S'(PF14_0681) or (PFI1485c)'
p1302
sS'R_DAGK181'
p1303
S'(PF14_0681) or (PFI1485c)'
p1304
sS'R_PGPP180pp'
p1305
NsS'R_PPPGO'
p1306
S'(PF10_0275)'
p1307
sS'R_SERGLYexR'
p1308
S'(PFF1430c) or (PFL0420w) or (PFL1515c) or (PFB0435c) or (PFE0775c) or (PF11_0334)'
p1309
sS'R_lipid8'
p1310
NsS'R_FACOAL161t2pp_ap'
p1311
S'(MAL13P1_485) or (PF07_0129) or (PF14_0751) or (PF14_0761) or (PFB0685c) or (PFB0695c) or (PFC0050c) or (PFD0085c) or (PFE1250w) or (PFF0945c) or (PFL1880w) or (PFL2570w)'
p1312
sS'R_LPS'
p1313
NsS'R_THIORDXi_mt'
p1314
S'(PF14_0368) or (PFL0725w)'
p1315
sS'R_COA8tap'
p1316
NsS'R_VALt2r'
p1317
S'(PFF1430c) or (PFL0420w) or (PFL1515c) or (PFB0435c) or (PFE0775c) or (PF11_0334)'
p1318
sS'R_LPLIPAL1E181pp'
p1319
S'(PF07_0005) or (PF07_0040) or (PF10_0379) or (PF14_0017) or (PF14_0737) or (PF14_0738)'
p1320
sS'R_MI1PS'
p1321
S'(PFE0585c)'
p1322
sS'R_THYMDt1'
p1323
S'(PFA0160c) or (MAL8P1_32) or (PF13_0252) or (PF14_0662)'
p1324
sS'R_DURIt'
p1325
S'(PFA0160c) or (MAL8P1_32) or (PF13_0252) or (PF14_0662)'
p1326
sS'R_MI1PP'
p1327
NsS'R_EX_duri_LPAREN_e_RPAREN_'
p1328
NsS'R_Q8H2tmt'
p1329
NsS'R_CBPS'
p1330
S'(PF13_0044)'
p1331
sS'R_NTD12pp'
p1332
S'(PFL0305c)'
p1333
sS'R_DXPS_ap'
p1334
S'(MAL13P1_186)'
p1335
sS'R_DHAPtap'
p1336
S'(PFE0410w)'
p1337
sS'R_PYDAMK'
p1338
S'(PFF0775w)'
p1339
sS'R_EAR141x_ap'
p1340
S'(PFF0730c)'
p1341
sS'R_ADK1'
p1342
S'(PF10_0086) or (PFD0755c)'
p1343
sS'R_ORPT'
p1344
S'(PFE0630c)'
p1345
sS'R_OHPHM_mt'
p1346
S'(MAL7P1_130)'
p1347
sS'R_4MOPtmt'
p1348
NsS'R_AMPtap'
p1349
NsS'R_ORNtiDF'
p1350
NsS'R_FMETDF'
p1351
S'(PFI0380c)'
p1352
sS'R_DCYTt'
p1353
S'(PFA0160c) or (MAL8P1_32) or (PF13_0252) or (PF14_0662)'
p1354
sS'R_3HAD121_ap'
p1355
S'(PF13_0128)'
p1356
sS'R_PLIPA2G161pp'
p1357
S'(PFB0410c)'
p1358
sS'R_HYPOE'
p1359
NsS'R_CYTDt'
p1360
S'(PFA0160c) or (MAL8P1_32) or (PF13_0252) or (PF14_0662)'
p1361
sS'R_RPE'
p1362
S'(PFL0960w)'
p1363
sS'R_FE2tap'
p1364
NsS'R_LPLIPAL2A120'
p1365
S'(PF07_0005) or (PF07_0040) or (PF10_0379) or (PF14_0017) or (PF14_0737) or (PF14_0738)'
p1366
sS'R_EX_malt_LPAREN_e_RPAREN_'
p1367
NsS'R_PSSA160'
p1368
S'(MAL13P1_335)'
p1369
sS'R_PEPPItap'
p1370
S'(PFE1510c)'
p1371
sS'R_RPI'
p1372
S'(PFE0730c)'
p1373
sS'R_LPLIPAL1E160pp'
p1374
S'(PF07_0005) or (PF07_0040) or (PF10_0379) or (PF14_0017) or (PF14_0737) or (PF14_0738)'
p1375
sS'R_EX_glc_LPAREN_e_RPAREN_'
p1376
NsS'R_HMBS_ap'
p1377
S'(PFL0480w)'
p1378
sS'R_PLIPA2G141pp'
p1379
S'(PFB0410c)'
p1380
sS'R_CMPtap'
p1381
NsS'R_LPLIPAL2ATE160'
p1382
S'(PF07_0005) or (PF07_0040) or (PF10_0379) or (PF14_0017) or (PF14_0737) or (PF14_0738)'
p1383
sS'R_OROTtmt'
p1384
NsS'R_3HAD60_ap'
p1385
S'(PF13_0128)'
p1386
sS'R_PA181tap'
p1387
NsS'R_ASNS1'
p1388
S'(PFC0395w)'
p1389
sS'R_EAR40x_ap'
p1390
S'(PFF0730c)'
p1391
sS'R_PAPA181'
p1392
S'(PFC0995c)'
p1393
sS'R_PAPA180'
p1394
S'(PFC0995c)'
p1395
sS'R_PLIPA2A161pp'
p1396
S'(PFB0410c)'
p1397
sS'R_PA180tap'
p1398
NsS'R_OIVD3_mt'
p1399
S'(PFE0225w) and (PFC0170c) and  ((PF08_0066) or (PFL1550w)) '
p1400
sS'R_PGPP160pp'
p1401
NsS'R_DESAT18_2'
p1402
S'(PFE0555w)'
p1403
sS'R_LPLIPAL2ATG180'
p1404
S'(PF07_0005) or (PF07_0040) or (PF10_0379) or (PF14_0017) or (PF14_0737) or (PF14_0738)'
p1405
sS'R_4HBZtmt'
p1406
NsS'R_PGPP160'
p1407
NsS'R_PGPP161'
p1408
NsS'R_PFK_2'
p1409
S'(PF11_0294) or (PFI0755c)'
p1410
sS'R_DHFR'
p1411
S'(PFD0830w)'
p1412
sS'R_ACONTbc'
p1413
S'(PF13_0229)'
p1414
sS'R_CO2tap'
p1415
NsS'R_EX_asn_L_LPAREN_e_RPAREN_'
p1416
NsS'R_4MHETZtmt'
p1417
NsS'R_HEXTT_mt'
p1418
S'(PFB0130w)'
p1419
sS'R_GLYOX'
p1420
S'(PFD0311w) or (PFL0285w)'
p1421
sS'R_CHLPCTD'
p1422
S'(MAL13P1_86)'
p1423
sS'R_UDCPDPS'
p1424
NsS'R_PAPA161'
p1425
S'(PFC0995c)'
p1426
sS'R_PAPA160'
p1427
S'(PFC0995c)'
p1428
sS'R_XOLEST2te'
p1429
NsS'R_COA10tap'
p1430
NsS'R_OIVD2_mt'
p1431
S'(PFE0225w) and (PFC0170c) and  ((PF08_0066) or (PFL1550w)) '
p1432
sS'R_PHETA1'
p1433
S'(PFB0200c)'
p1434
sS'R_EX_chol_LPAREN_e_RPAREN_'
p1435
NsS'R_GLUSx'
p1436
S'(PF14_0334)'
p1437
sS'R_NTD3pp'
p1438
S'(PFL0305c)'
p1439
sS'R_PPPG9tap'
p1440
NsS'R_PGPP180'
p1441
NsS'R_PGPP181'
p1442
NsS'R_ALAGLNexR'
p1443
S'(PFF1430c) or (PFL0420w) or (PFL1515c) or (PFB0435c) or (PFE0775c) or (PF11_0334)'
p1444
sS'R_OPHHX_mt'
p1445
NsS'R_GLYK'
p1446
S'(PF13_0269)'
p1447
sS'R_ARGLYSex'
p1448
S'(PFF1430c) or (PFL0420w) or (PFL1515c) or (PFB0435c) or (PFE0775c) or (PF11_0334)'
p1449
sS'R_DUMPK'
p1450
S'(PFL2465c)'
p1451
sS'R_PSSA180'
p1452
S'(MAL13P1_335)'
p1453
sS'R_GLNTRS'
p1454
S'(PF13_0170)'
p1455
sS'R_NADPtap'
p1456
NsS'R_DMATT'
p1457
S'(PF11_0295)'
p1458
sS'R_MAN1PT'
p1459
S'(PF14_0774)'
p1460
sS'R_G3PAT181_ap'
p1461
S'(PF13_0100) or (PFL0620c)'
p1462
sS'R_EX_ribflv1'
p1463
NsS'R_KAS15_ap'
p1464
S'(PFB0505c)'
p1465
sS'R_PENDPtmt'
p1466
NsS'R_PYDXPP'
p1467
NsS'R_EX_gln_L_LPAREN_e_RPAREN_'
p1468
NsS'R_CYSTRS'
p1469
S'(PF10_0149)'
p1470
sS'R_PA161tap'
p1471
NsS'R_CYSGLUexR'
p1472
S'(PFF1430c) or (PFL0420w) or (PFL1515c) or (PFB0435c) or (PFE0775c) or (PF11_0334)'
p1473
sS'R_MEPCT_ap'
p1474
S'(PFA0340w)'
p1475
sS'R_SERTRS2'
p1476
S'(PF07_0073) or (PFL0770w)'
p1477
sS'R_TYRTRS'
p1478
S'(MAL8P1_125) or (PF11_0181)'
p1479
sS'R_ACONTam_mt'
p1480
S'(PF13_0229)'
p1481
sS'R_UREAt'
p1482
NsS'R_MI145PP'
p1483
S'(PF07_0024) or (PF13_0285)'
p1484
sS'R_PIt2r'
p1485
S'(MAL13P1_206)'
p1486
sS'R_MI134PP'
p1487
NsS'R_NACUP'
p1488
NsS'R_3OAS80_ap'
p1489
S'(PFB0505c) or (PFF1275c)'
p1490
sS'R_PTRCt2'
p1491
NsS'R_LYSTRS'
p1492
S'(PF13_0262) or (PF14_0166)'
p1493
sS'R_LPLIPAL2A181'
p1494
S'(PF07_0005) or (PF07_0040) or (PF10_0379) or (PF14_0017) or (PF14_0737) or (PF14_0738)'
p1495
sS'R_DHAPtmt'
p1496
NsS'R_SERGLNexR'
p1497
S'(PFF1430c) or (PFL0420w) or (PFL1515c) or (PFB0435c) or (PFE0775c) or (PF11_0334)'
p1498
sS'R_DGAT'
p1499
NsS'R_DAGK160'
p1500
S'(PF14_0681) or (PFI1485c)'
p1501
sS'R_TYRt2r'
p1502
S'(PFF1430c) or (PFL0420w) or (PFL1515c) or (PFB0435c) or (PFE0775c) or (PF11_0334)'
p1503
sS'R_EX_etha_LPAREN_e_RPAREN_'
p1504
NsS'R_SPODM_mt'
p1505
S'(PF08_0071) or (PFF1130c)'
p1506
sS'R_SPODMc'
p1507
S'(PF08_0071) or (PFF1130c)'
p1508
sS'R_PTHPS2'
p1509
S'(PFF1360w)'
p1510
sS'R_NTD11pp'
p1511
S'(PFL0305c)'
p1512
sS'R_SBT_Dt'
p1513
NsS'R_3HAD180_ap'
p1514
S'(PF13_0128)'
p1515
sS'R_LPLIPAL2A160'
p1516
S'(PF07_0005) or (PF07_0040) or (PF10_0379) or (PF14_0017) or (PF14_0737) or (PF14_0738)'
p1517
sS'R_FAS80_L_ap'
p1518
S'(PFB0505c) or (PFI1125c)'
p1519
sS'R_PIACGT'
p1520
NsS'R_NADH5'
p1521
S'(PFI0735c)'
p1522
sS'R_METS'
p1523
NsS'R_EX_dcyt_LPAREN_e_RPAREN_'
p1524
NsS'R_XANt'
p1525
S'(PFA0160c) or (MAL8P1_32) or (PF13_0252) or (PF14_0662)'
p1526
sS'R_DAGK161'
p1527
S'(PF14_0681) or (PFI1485c)'
p1528
sS'R_GMAND'
p1529
S'(PF08_0077)'
p1530
sS'R_lipid3'
p1531
NsS'R_XPRT'
p1532
S'(PF10_0121)'
p1533
sS'R_PYDXtr'
p1534
NsS'R_AMETtmt'
p1535
S'(PFL2000w)'
p1536
sS'R_O2t'
p1537
NsS'R_3OAR161_ap'
p1538
S'(PFI1125c)'
p1539
sS'R_ACS'
p1540
S'(PFF1350c)'
p1541
sS'R_LPLIPAL2ATG140'
p1542
S'(PF07_0005) or (PF07_0040) or (PF10_0379) or (PF14_0017) or (PF14_0737) or (PF14_0738)'
p1543
sS'R_LPLIPAL2ATG141'
p1544
S'(PF07_0005) or (PF07_0040) or (PF10_0379) or (PF14_0017) or (PF14_0737) or (PF14_0738)'
p1545
sS'R_EX_4ahmmp'
p1546
NsS'R_COAtmt'
p1547
NsS'R_DCTPD'
p1548
S'(PF13_0259)'
p1549
sS'R_PGSA180'
p1550
S'(MAL8P1_58)'
p1551
sS'R_PGSA181'
p1552
S'(MAL8P1_58)'
p1553
sS'R_ABUTt2r'
p1554
NsS'R_FACOAL160t2pp_ap'
p1555
S'(MAL13P1_485) or (PF07_0129) or (PF14_0751) or (PF14_0761) or (PFB0685c) or (PFB0695c) or (PFC0050c) or (PFD0085c) or (PFE1250w) or (PFF0945c) or (PFL1880w) or (PFL2570w)'
p1556
sS'R_ETHAPT'
p1557
S'(PFF1375c)'
p1558
sS'R_UAGDP'
p1559
S'(MAL13P1_218)'
p1560
sS'R_ATPtmt'
p1561
S'(PF11_0485) or (PFB0795w) or (PFL1725w) or (MAL13P1_47) or (PF13_0061) or (MAL7P1_75) or (MAL7P1_340)'
p1562
sS'R_FAS140_ap'
p1563
S'(PFB0505c) or (PFI1125c)'
p1564
sS'R_GTPHs'
p1565
NsS'R_EX_akg_LPAREN_e_RPAREN_'
p1566
NsS'R_AHCYStmt'
p1567
NsS'R_NO2t2rpp'
p1568
S'(PFC0725c)'
p1569
sS'R_MAN6PI'
p1570
S'(MAL8P1_156)'
p1571
sS'R_HPPK2'
p1572
S'(PF08_0095)'
p1573
sS'R_LPLIPAL1G141pp'
p1574
S'(PF07_0005) or (PF07_0040) or (PF10_0379) or (PF14_0017) or (PF14_0737) or (PF14_0738)'
p1575
sS'R_THMP'
p1576
S'(PFI0880c)'
p1577
sS'R_D_LACt2'
p1578
NsS'R_ICDHyr_mt'
p1579
S'(PF13_0242)'
p1580
sS'R_GLUDy_ap'
p1581
S'(PF14_0286)'
p1582
sS'R_ILETA'
p1583
S'(PF14_0557)'
p1584
sS'R_EX_nicotinamide2'
p1585
NsS'R_CBPSam'
p1586
S'(PF13_0044)'
p1587
sS'R_EAR181x_ap'
p1588
S'(PFF0730c)'
p1589
sS'R_AKGMAL'
p1590
NsS'R_THMt3'
p1591
NsS'R_THD2pp'
p1592
S'(PF14_0508)'
p1593
sS'R_DASYN181'
p1594
S'(PF14_0097)'
p1595
sS'R_3HAD160_ap'
p1596
S'(PF13_0128)'
p1597
sS'R_L_LACt2r'
p1598
NsS'R_EX_for_LPAREN_e_RPAREN_'
p1599
NsS'R_CYSLtmt'
p1600
NsS'R_lipid4'
p1601
NsS'R_NNAM'
p1602
S'(PFC0910w)'
p1603
sS'R_LPLIPAL2G181'
p1604
S'(PF07_0005) or (PF07_0040) or (PF10_0379) or (PF14_0017) or (PF14_0737) or (PF14_0738)'
p1605
sS'R_LPLIPAL2G180'
p1606
S'(PF07_0005) or (PF07_0040) or (PF10_0379) or (PF14_0017) or (PF14_0737) or (PF14_0738)'
p1607
sS'R_PNTOt2'
p1608
S'(PF11_0059)'
p1609
sS'R_DHORD2_mt'
p1610
S'(PFF0160c)'
p1611
sS'R_EAR80x_ap'
p1612
S'(PFF0730c)'
p1613
sS'R_PPItap'
p1614
NsS'R_4MPETZtmt'
p1615
NsS'R_ADA'
p1616
S'(PF10_0289)'
p1617
sS'R_PPPGO3_mt'
p1618
S'(PF10_0275)'
p1619
sS'R_EAR140x_ap'
p1620
S'(PFF0730c)'
p1621
sS'R_FUMt2r'
p1622
NsS'R_EX_dad_2_LPAREN_e_RPAREN_'
p1623
NsS'R_AMPTASEPG'
p1624
S'(MAL13P1_56)'
p1625
sS'R_PAPA120'
p1626
S'(PFC0995c)'
p1627
sS'R_ADNCYC'
p1628
S'(PF14_0788)'
p1629
sS'R_LPLIPAL1A140pp'
p1630
S'(PF07_0005) or (PF07_0040) or (PF10_0379) or (PF14_0017) or (PF14_0737) or (PF14_0738)'
p1631
sS'R_AMPDA'
p1632
S'(MAL13P1_146)'
p1633
sS'R_NO2tmt'
p1634
NsS'R_G6PDH2r'
p1635
S'(PF14_0511)'
p1636
sS'R_3OAS180_ap'
p1637
S'(PFB0505c) or (PFF1275c)'
p1638
sS'R_PETHCT'
p1639
S'(PF13_0253)'
p1640
sS'R_ATPH1e'
p1641
S'(PF14_0297)'
p1642
sS'R_CYSGLYexR'
p1643
S'(PFF1430c) or (PFL0420w) or (PFL1515c) or (PFB0435c) or (PFE0775c) or (PF11_0334)'
p1644
sS'R_NTD4pp'
p1645
S'(PFL0305c)'
p1646
sS'R_SELNPS'
p1647
S'(PFI0505c)'
p1648
sS'R_4AHMMPtr'
p1649
NsS'R_HDCEAtr'
p1650
NsS'R_3HAD140_ap'
p1651
S'(PF13_0128)'
p1652
sS'R_PAPA161pp'
p1653
S'(PFC0995c)'
p1654
sS'R_PSD140'
p1655
S'(PFI1370c)'
p1656
sS'R_LPLIPAL1E180pp'
p1657
S'(PF07_0005) or (PF07_0040) or (PF10_0379) or (PF14_0017) or (PF14_0737) or (PF14_0738)'
p1658
sS'R_EX_ins_LPAREN_e_RPAREN_'
p1659
NsS'R_MALt2r'
p1660
NsS'R_DHCRD2'
p1661
NsS'R_PSD141'
p1662
S'(PFI1370c)'
p1663
sS'R_DHCRD1'
p1664
NsS'R_COA5tap'
p1665
NssS'genes'
p1666
c__builtin__
set
p1667
((lp1668
S'PF11_0338'
p1669
aS'PF11_0334'
p1670
aS'PF10_0137'
p1671
aS'PFF1095w'
p1672
aS'PF10_0132'
p1673
aS'PFF1430c'
p1674
aS'PF13_0269'
p1675
aS'PF13_0159'
p1676
aS'PF07_0040'
p1677
aS'PFC0275w'
p1678
aS'PFE0410w'
p1679
aS'PFC0831w'
p1680
aS'PF14_0589'
p1681
aS'PF13_0262'
p1682
aS'PF14_0662'
p1683
aS'PFD0285c'
p1684
aS'PFF1275c'
p1685
aS'PFL0770w'
p1686
aS'PF14_0341'
p1687
aS'PF14_0401'
p1688
aS'PFD0755c'
p1689
aS'MAL13P1_292'
p1690
aS'PFA0160c'
p1691
aS'PFA0225w'
p1692
aS'MAL7P1_130'
p1693
aS'PFI0950w'
p1694
aS'PFL1940w'
p1695
aS'PFB0210c'
p1696
aS'PF10_0289'
p1697
aS'PF11_0427'
p1698
aS'MAL8P1_32'
p1699
aS'PFC0725c'
p1700
aS'PF14_0060'
p1701
aS'PF13_0253'
p1702
aS'PF14_0100'
p1703
aS'PFI0320w'
p1704
aS'PFI0735c'
p1705
aS'PF11_0036'
p1706
aS'PF13_0089'
p1707
aS'PFB0220w'
p1708
aS'PFF1490w'
p1709
aS'PFF0275c'
p1710
aS'MAL8P1_81'
p1711
aS'PFA0485w'
p1712
aS'PF14_0641'
p1713
aS'PF13_0170'
p1714
aS'PF13_0287'
p1715
aS'PF13_0157'
p1716
aS'PF14_0761'
p1717
aS'PF10_0340'
p1718
aS'MAL13P1_221'
p1719
aS'PFA0145c'
p1720
aS'PF14_0368'
p1721
aS'PFB0295w'
p1722
aS'PF08_0132'
p1723
aS'MAL13P1_206'
p1724
aS'PFF0775w'
p1725
aS'PF08_0031'
p1726
aS'PF07_0009'
p1727
aS'PFL2000w'
p1728
aS'PFD0660w'
p1729
aS'PFF1155w'
p1730
aS'PFE1030c'
p1731
aS'PFF1360w'
p1732
aS'PFF1375c'
p1733
aS'PFF1115w'
p1734
aS'PFL0670c'
p1735
aS'MAL7P1_150'
p1736
aS'PFF1335c'
p1737
aS'MAL8P1_17'
p1738
aS'PF13_0100'
p1739
aS'PF14_0166'
p1740
aS'PF14_0164'
p1741
aS'PF13_0234'
p1742
aS'PFI1485c'
p1743
aS'PF14_0246'
p1744
aS'MAL8P1_13'
p1745
aS'PF07_0068'
p1746
aS'PF13_0205'
p1747
aS'PFD0830w'
p1748
aS'PF14_0248'
p1749
aS'PFF1410c'
p1750
aS'PFC0050c'
p1751
aS'PFD0610w'
p1752
aS'PFI1365w'
p1753
aS'PFE1035c'
p1754
aS'PFL0595c'
p1755
aS'PF10_0245'
p1756
aS'PF07_0005'
p1757
aS'PFE1510c'
p1758
aS'PF10_0363'
p1759
aS'PFF0360w'
p1760
aS'PF10_0366'
p1761
aS'COI'
p1762
aS'MAL13P1_56'
p1763
aS'PF13_0352'
p1764
aS'PF13_0353'
p1765
aS'MAL13P1_324'
p1766
aS'MAL13P1_326'
p1767
aS'MAL13P1_248'
p1768
aS'PF14_0381'
p1769
aS'MAL8P1_58'
p1770
aS'PF08_0011'
p1771
aS'PF14_0425'
p1772
aS'PFF0945c'
p1773
aS'PF14_0541'
p1774
aS'PFB0435c'
p1775
aS'PF11_0169'
p1776
aS'PF14_0017'
p1777
aS'PF11_0282'
p1778
aS'PFL2485c'
p1779
aS'PFI0880c'
p1780
aS'MAL13P1_47'
p1781
aS'PFE1115c'
p1782
aS'PFL0110c'
p1783
aS'PFL2570w'
p1784
aS'PFL2465c'
p1785
aS'PF11_0301'
p1786
aS'PFF0680c'
p1787
aS'PF10_0169'
p1788
aS'PFC0710w'
p1789
aS'PF13_0257'
p1790
aS'PFI1100w'
p1791
aS'PF13_0121'
p1792
aS'PF13_0252'
p1793
aS'PFE1250w'
p1794
aS'PF13_0259'
p1795
aS'PF10_0155'
p1796
aS'PF13_0128'
p1797
aS'MAL13P1_301'
p1798
aS'PF10_0275'
p1799
aS'PF14_0334'
p1800
aS'PF14_0331'
p1801
aS'PFF0815w'
p1802
aS'PFA0480w'
p1803
aS'PF07_0024'
p1804
aS'PF11_0257'
p1805
aS'PF11_0097'
p1806
aS'PFE0775c'
p1807
aS'PF14_0721'
p1808
aS'PFL1260w'
p1809
aS'PF11_0410'
p1810
aS'PFF0435w'
p1811
aS'PFL0900c'
p1812
aS'MAL8P1_156'
p1813
aS'PFL0305c'
p1814
aS'PFL0420w'
p1815
aS'PFL0960w'
p1816
aS'PF11_0145'
p1817
aS'MAL13P1_319'
p1818
aS'PFE0150c'
p1819
aS'MAL13P1_119'
p1820
aS'PF14_0681'
p1821
aS'PF10_0149'
p1822
aS'PFI0420c'
p1823
aS'PF11_0485'
p1824
aS'PFI1340w'
p1825
aS'PFD0311w'
p1826
aS'PF10_0147'
p1827
aS'PF14_0664'
p1828
aS'PF13_0144'
p1829
aS'PF14_0598'
p1830
aS'PFF1420w'
p1831
aS'PF13_0140'
p1832
aS'PF13_0143'
p1833
aS'PFB0130w'
p1834
aS'PF14_0751'
p1835
aS'PF10_0210'
p1836
aS'PF14_0200'
p1837
aS'PF14_0354'
p1838
aS'PF08_0068'
p1839
aS'PFB0505c'
p1840
aS'PFF1105c'
p1841
aS'PF14_0352'
p1842
aS'PFF0895w'
p1843
aS'MAL13P1_146'
p1844
aS'PF11_0395'
p1845
aS'PF08_0066'
p1846
aS'PFB0410c'
p1847
aS'MAL13P1_281'
p1848
aS'PFI0380c'
p1849
aS'MAL13P1_284'
p1850
aS'MAL8P1_202'
p1851
aS'PF10_0322'
p1852
aS'PFB0880w'
p1853
aS'PF10_0218'
p1854
aS'PFE0555w'
p1855
aS'PFI1310w'
p1856
aS'PF11_0436'
p1857
aS'PFD0085c'
p1858
aS'PFE0660c'
p1859
aS'PF07_0129'
p1860
aS'PF14_0508'
p1861
aS'PF10_0407'
p1862
aS'PF13_0141'
p1863
aS'PF14_0053'
p1864
aS'PFB0695c'
p1865
aS'PF14_0295'
p1866
aS'PF14_0297'
p1867
aS'PF13_0272'
p1868
aS'PFL1880w'
p1869
aS'PF14_0520'
p1870
aS'PFF0450c'
p1871
aS'PFE0605c'
p1872
aS'PFB0685c'
p1873
aS'MAL13P1_118'
p1874
aS'PF10_0122'
p1875
aS'PF10_0123'
p1876
aS'PF10_0121'
p1877
aS'MAL13P1_218'
p1878
aS'PF08_0071'
p1879
aS'PF14_0774'
p1880
aS'PF10_0215'
p1881
aS'MAL13P1_210'
p1882
aS'PFI1195c'
p1883
aS'PF14_0672'
p1884
aS'PF11_0181'
p1885
aS'MAL13P1_67'
p1886
aS'PF14_0378'
p1887
aS'PF14_0373'
p1888
aS'COXIII'
p1889
aS'PFC0995c'
p1890
aS'PFF1215w'
p1891
aS'PFA0340w'
p1892
aS'PF08_0045'
p1893
aS'PF14_0570'
p1894
aS'PF11_0051'
p1895
aS'PFL1920c'
p1896
aS'PFD0980w'
p1897
aS'PF08_0095'
p1898
aS'PF11_0483'
p1899
aS'PF11_0059'
p1900
aS'PFE0475w'
p1901
aS'PFI0925w'
p1902
aS'PFF1190c'
p1903
aS'PF10_0051'
p1904
aS'PF11_0352'
p1905
aS'PF14_0484'
p1906
aS'MAL13P1_186'
p1907
aS'PFL0725w'
p1908
aS'MAL7P1_75'
p1909
aS'PF14_0357'
p1910
aS'PFL0255c'
p1911
aS'PFL0285w'
p1912
aS'PFF0230c'
p1913
aS'PFI0685w'
p1914
aS'PFF1130c'
p1915
aS'PFF0530w'
p1916
aS'PFL1725w'
p1917
aS'PFF1210w'
p1918
aS'PF11_0208'
p1919
aS'PF14_0097'
p1920
aS'PFI1170c'
p1921
aS'PF07_0073'
p1922
aS'PF10_0379'
p1923
aS'PFL2510w'
p1924
aS'PF13_0066'
p1925
aS'PFF0160c'
p1926
aS'PFC0170c'
p1927
aS'PFB0200c'
p1928
aS'MAL13P1_335'
p1929
aS'PF13_0061'
p1930
aS'PFB0280w'
p1931
aS'PF13_0345'
p1932
aS'PFI0755c'
p1933
aS'PFB0795w'
p1934
aS'PF13_0349'
p1935
aS'PFI1375w'
p1936
aS'PF14_0415'
p1937
aS'PF11_0295'
p1938
aS'PF11_0294'
p1939
aS'PF14_0557'
p1940
aS'PFB0525w'
p1941
aS'PFL0630w'
p1942
aS'PF14_0421'
p1943
aS'PFC0395w'
p1944
aS'PFI1420w'
p1945
aS'MAL13P1_82'
p1946
aS'PFL1720w'
p1947
aS'PF10_0175'
p1948
aS'PFL1550w'
p1949
aS'PFC0910w'
p1950
aS'PFA0465c'
p1951
aS'PF11_0270'
p1952
aS'PFC0935c'
p1953
aS'PFA0555c'
p1954
aS'PF14_0155'
p1955
aS'PFL0620c'
p1956
aS'PF13_0229'
p1957
aS'MAL13P1_485'
p1958
aS'PFI0505c'
p1959
aS'PFL1870c'
p1960
aS'PFI1020c'
p1961
aS'PF14_0788'
p1962
aS'PFC0470w'
p1963
aS'PFL1155w'
p1964
aS'PFE0630c'
p1965
aS'PFL0780w'
p1966
aS'PFE0715w'
p1967
aS'PFE0730c'
p1968
aS'PFE0405c'
p1969
aS'PFI1090w'
p1970
aS'PF13_0044'
p1971
aS'PF14_0737'
p1972
aS'PFI1370c'
p1973
aS'PFF1350c'
p1974
aS'PF14_0738'
p1975
aS'PF07_0018'
p1976
aS'PFB0420w'
p1977
aS'PF10_0086'
p1978
aS'PFL0475w'
p1979
aS'PF10_0053'
p1980
aS'MAL8P1_125'
p1981
aS'PF14_0534'
p1982
aS'PFE0765w'
p1983
aS'PFE0485w'
p1984
aS'PF14_0020'
p1985
aS'PF07_0085'
p1986
aS'PFA0590w'
p1987
aS'PF11_0172'
p1988
aS'PF11_0173'
p1989
aS'PFE1080w'
p1990
aS'PFL1350w'
p1991
aS'PFI0960w'
p1992
aS'PF13_0285'
p1993
aS'PFB0890c'
p1994
aS'PF10_0154'
p1995
aS'MAL7P1_340'
p1996
aS'PF11_0311'
p1997
aS'PF10_0221'
p1998
aS'PF11_0256'
p1999
aS'PFI1105w'
p2000
aS'PF10_0225'
p2001
aS'PFF0370w'
p2002
aS'PFF0740c'
p2003
aS'PFL1540c'
p2004
aS'PF13_0242'
p2005
aS'PFE1050w'
p2006
aS'PFL1515c'
p2007
aS'PF13_0070'
p2008
aS'PF11_0157'
p2009
aS'PF14_0441'
p2010
aS'PFI1240c'
p2011
aS'PF08_0077'
p2012
aS'PFE0225w'
p2013
aS'PF14_0198'
p2014
aS'PFL0480w'
p2015
aS'PF14_0192'
p2016
aS'PFE0585c'
p2017
aS'PF10_0334'
p2018
aS'PF13_0179'
p2019
aS'PFF0730c'
p2020
aS'MAL13P1_86'
p2021
aS'PFD0465c'
p2022
aS'PF13_0354'
p2023
aS'PFL2210w'
p2024
aS'PF11_0407'
p2025
aS'PFF0180w'
p2026
aS'PF14_0511'
p2027
aS'PFI1110w'
p2028
aS'PF14_0288'
p2029
aS'PF14_0694'
p2030
aS'PF14_0428'
p2031
aS'PF14_0697'
p2032
aS'PFI1125c'
p2033
aS'PF14_0286'
p2034
atp2035
Rp2036
sS'gene_sets'
p2037
(dp2038
g8
g1667
((lp2039
g1989
ag1992
atp2040
Rp2041
sg10
g1667
((lp2042
g1669
atp2043
Rp2044
sg12
(lp2045
sg13
g1667
((lp2046
g1943
atp2047
Rp2048
sg15
g1667
((lp2049
g1703
atp2050
Rp2051
sg17
g1667
((lp2052
g2033
ag1840
atp2053
Rp2054
sg19
(lp2055
sg20
g1667
((lp2056
g1716
ag1833
atp2057
Rp2058
sg22
g1667
((lp2059
S'PF07_0085'
p2060
atp2061
Rp2062
sg24
g1667
((lp2063
g1905
ag1868
ag2030
ag1694
ag1738
atp2064
Rp2065
sg26
(lp2066
sg27
g1667
((lp2067
g1701
atp2068
Rp2069
sg29
g1667
((lp2070
g1815
ag1670
ag1807
ag2007
ag1674
ag1775
atp2071
Rp2072
sg31
(lp2073
sg32
g1667
((lp2074
g1725
atp2075
Rp2076
sg34
g1667
((lp2077
g1998
atp2078
Rp2079
sg36
g1667
((lp2080
g1692
atp2081
Rp2082
sg38
g1667
((lp2083
S'PFI1125c'
p2084
atp2085
Rp2086
sg40
(lp2087
sg41
g1667
((lp2088
g1960
atp2089
Rp2090
sg43
g1667
((lp2091
g1791
atp2092
Rp2093
sg45
g1667
((lp2094
S'PFC0725c'
p2095
atp2096
Rp2097
sg47
(lp2098
sg48
g1667
((lp2099
g1891
atp2100
Rp2101
sg50
g1667
((lp2102
g1786
atp2103
Rp2104
sg52
g1667
((lp2105
g1732
atp2106
Rp2107
sg54
g1667
((lp2108
g1743
ag1821
atp2109
Rp2110
sg56
g1667
((lp2111
g1835
ag1751
ag1794
ag1873
ag1773
ag1958
ag1869
ag1865
ag1717
ag1858
ag1784
ag1860
atp2112
Rp2113
sg58
g1667
((lp2114
g1898
atp2115
Rp2116
sg60
g1667
((lp2117
S'PFL0420w'
p2118
aS'PF11_0334'
p2119
aS'PFE0775c'
p2120
aS'PFL1515c'
p2121
aS'PFF1430c'
p2122
aS'PFB0435c'
p2123
atp2124
Rp2125
sg62
(lp2126
sg63
g1667
((lp2127
g1888
ag1749
atp2128
Rp2129
sg65
g1667
((lp2130
S'MAL13P1_335'
p2131
atp2132
Rp2133
sg67
g1667
((lp2134
g1802
atp2135
Rp2136
sg69
(lp2137
sg70
g1667
((lp2138
S'PFL0420w'
p2139
aS'PF11_0334'
p2140
aS'PFE0775c'
p2141
aS'PFL1515c'
p2142
aS'PFF1430c'
p2143
aS'PFB0435c'
p2144
atp2145
Rp2146
sg72
(lp2147
sg73
g1667
((lp2148
g1767
atp2149
Rp2150
sg75
g1667
((lp2151
g1699
ag1691
ag1683
ag1793
atp2152
Rp2153
sg77
g1667
((lp2154
S'PF07_0005'
p2155
aS'PF14_0737'
p2156
aS'PF14_0017'
p2157
aS'PF10_0379'
p2158
aS'PF07_0040'
p2159
aS'PF14_0738'
p2160
atp2161
Rp2162
sg79
(lp2163
sg80
(lp2164
sg81
g1667
((lp2165
S'PFB0200c'
p2166
atp2167
Rp2168
sg83
g1667
((lp2169
g1715
atp2170
Rp2171
sg85
(lp2172
sg86
g1667
((lp2173
g1690
ag1827
atp2174
Rp2175
sg88
g1667
((lp2176
g1686
ag1922
atp2177
Rp2178
sg90
g1667
((lp2179
g1676
atp2180
Rp2181
sg92
g1667
((lp2182
S'PFB0505c'
p2183
ag1685
atp2184
Rp2185
sg94
g1667
((lp2186
g1834
atp2187
Rp2188
sg96
g1667
((lp2189
g1799
atp2190
Rp2191
sg98
(lp2192
sg99
g1667
((lp2193
S'PF14_0421'
p2194
atp2195
Rp2196
sg101
(lp2197
sg102
(lp2198
sg103
(lp2199
sg104
g1667
((lp2200
g1770
atp2201
Rp2202
sg106
g1667
((lp2203
g1867
atp2204
Rp2205
sg108
g1667
((lp2206
g1797
atp2207
Rp2208
sg110
(lp2209
sg111
g1667
((lp2210
g1839
atp2211
Rp2212
sg113
g1667
((lp2213
g1847
atp2214
Rp2215
sg115
(lp2216
sg116
g1667
((lp2217
g1814
atp2218
Rp2219
sg118
g1667
((lp2220
S'PF14_0097'
p2221
atp2222
Rp2223
sg120
g1667
((lp2224
g1890
atp2225
Rp2226
sg122
g1667
((lp2227
g1945
atp2228
Rp2229
sg124
(lp2230
sg125
(lp2231
sg126
g1667
((lp2232
S'PFI1125c'
p2233
atp2234
Rp2235
sg128
g1667
((lp2236
g1695
atp2237
Rp2238
sg130
g1667
((lp2239
g1766
atp2240
Rp2241
sg132
(lp2242
sg133
g1667
((lp2243
g1986
ag1734
ag2025
atp2244
Rp2245
sg135
g1667
((lp2246
S'PF07_0005'
p2247
aS'PF14_0737'
p2248
aS'PF14_0017'
p2249
aS'PF10_0379'
p2250
aS'PF07_0040'
p2251
aS'PF14_0738'
p2252
atp2253
Rp2254
sg137
g1667
((lp2255
g1853
atp2256
Rp2257
sg139
g1667
((lp2258
g2003
atp2259
Rp2260
sg141
g1667
((lp2261
S'PFB0505c'
p2262
aS'PFF1275c'
p2263
atp2264
Rp2265
sg143
g1667
((lp2266
S'PFL0420w'
p2267
aS'PF11_0334'
p2268
aS'PFE0775c'
p2269
aS'PFL1515c'
p2270
aS'PFF1430c'
p2271
aS'PFB0435c'
p2272
atp2273
Rp2274
sg145
(lp2275
sg146
(lp2276
sg147
g1667
((lp2277
g1946
atp2278
Rp2279
sg149
g1667
((lp2280
g1707
atp2281
Rp2282
sg151
g1667
((lp2283
g1779
ag1747
atp2284
Rp2285
sg153
g1667
((lp2286
S'PF07_0005'
p2287
aS'PF14_0737'
p2288
aS'PF14_0017'
p2289
aS'PF10_0379'
p2290
aS'PF07_0040'
p2291
aS'PF14_0738'
p2292
atp2293
Rp2294
sg155
g1667
((lp2295
S'PFB0410c'
p2296
atp2297
Rp2298
sg157
g1667
((lp2299
S'PF13_0128'
p2300
atp2301
Rp2302
sg159
(lp2303
sg160
g1667
((lp2304
g1745
ag1988
ag1881
atp2305
Rp2306
sg162
g1667
((lp2307
g1787
atp2308
Rp2309
sg164
g1667
((lp2310
g1877
atp2311
Rp2312
sg166
g1667
((lp2313
S'PFI1100w'
p2314
atp2315
Rp2316
sg168
g1667
((lp2317
S'PFB0505c'
p2318
aS'PFF1275c'
p2319
atp2320
Rp2321
sg170
g1667
((lp2322
S'PFL0305c'
p2323
atp2324
Rp2325
sg172
g1667
((lp2326
S'PFL0305c'
p2327
atp2328
Rp2329
sg174
g1667
((lp2330
S'MAL8P1_32'
p2331
aS'PFA0160c'
p2332
aS'PF14_0662'
p2333
aS'PF13_0252'
p2334
atp2335
Rp2336
sg176
(lp2337
sg177
g1667
((lp2338
S'PFL0305c'
p2339
atp2340
Rp2341
sg179
(lp2342
sg180
g1667
((lp2343
S'PFL0305c'
p2344
atp2345
Rp2346
sg182
g1667
((lp2347
S'PFL0305c'
p2348
atp2349
Rp2350
sg184
g1667
((lp2351
S'PFL0305c'
p2352
atp2353
Rp2354
sg186
g1667
((lp2355
S'PFL0305c'
p2356
atp2357
Rp2358
sg188
g1667
((lp2359
S'PFI1125c'
p2360
aS'PFB0505c'
p2361
atp2362
Rp2363
sg190
g1667
((lp2364
S'PFL0305c'
p2365
atp2366
Rp2367
sg192
g1667
((lp2368
g1974
atp2369
Rp2370
sg194
g1667
((lp2371
S'PF07_0005'
p2372
aS'PF14_0737'
p2373
aS'PF14_0017'
p2374
aS'PF10_0379'
p2375
aS'PF07_0040'
p2376
aS'PF14_0738'
p2377
atp2378
Rp2379
sg196
(lp2380
sg197
g1667
((lp2381
g1741
atp2382
Rp2383
sg199
g1667
((lp2384
S'PFB0505c'
p2385
aS'PFF1275c'
p2386
atp2387
Rp2388
sg201
g1667
((lp2389
g1820
ag1874
ag1884
ag1979
atp2390
Rp2391
sg203
g1667
((lp2392
S'MAL13P1_119'
p2393
aS'MAL13P1_118'
p2394
aS'PF14_0672'
p2395
aS'PFL0475w'
p2396
atp2397
Rp2398
sg205
g1667
((lp2399
S'PFC0995c'
p2400
atp2401
Rp2402
sg207
g1667
((lp2403
S'MAL13P1_119'
p2404
aS'MAL13P1_118'
p2405
aS'PF14_0672'
p2406
aS'PFL0475w'
p2407
atp2408
Rp2409
sg209
g1667
((lp2410
S'MAL13P1_119'
p2411
aS'MAL13P1_118'
p2412
aS'PF14_0672'
p2413
aS'PFL0475w'
p2414
atp2415
Rp2416
sg211
g1667
((lp2417
S'PF07_0005'
p2418
aS'PF14_0737'
p2419
aS'PF14_0017'
p2420
aS'PF10_0379'
p2421
aS'PF07_0040'
p2422
aS'PF14_0738'
p2423
atp2424
Rp2425
sg213
g1667
((lp2426
S'PFI1125c'
p2427
aS'PFB0505c'
p2428
atp2429
Rp2430
sg215
(lp2431
sg216
g1667
((lp2432
S'PFA0225w'
p2433
atp2434
Rp2435
sg218
g1667
((lp2436
g1705
atp2437
Rp2438
sg220
(lp2439
sg221
g1667
((lp2440
g1855
atp2441
Rp2442
sg223
g1667
((lp2443
g1739
ag1956
atp2444
Rp2445
sg225
g1667
((lp2446
S'PFE0555w'
p2447
atp2448
Rp2449
sg227
g1667
((lp2450
g1671
atp2451
Rp2452
sg229
g1667
((lp2453
S'PFL0420w'
p2454
aS'PF11_0334'
p2455
aS'PFE0775c'
p2456
aS'PFL1515c'
p2457
aS'PFF1430c'
p2458
aS'PFB0435c'
p2459
atp2460
Rp2461
sg231
(lp2462
sg232
g1667
((lp2463
g1698
atp2464
Rp2465
sg234
g1667
((lp2466
g1759
atp2467
Rp2468
sg236
(lp2469
sg237
(lp2470
sg238
(lp2471
sg239
g1667
((lp2472
S'PFF0730c'
p2473
atp2474
Rp2475
sg241
g1667
((lp2476
g2018
atp2477
Rp2478
sg243
g1667
((lp2479
S'PF14_0751'
p2480
aS'PFC0050c'
p2481
aS'PFE1250w'
p2482
aS'PFB0685c'
p2483
aS'PFF0945c'
p2484
aS'MAL13P1_485'
p2485
aS'PFL1880w'
p2486
aS'PFB0695c'
p2487
aS'PF14_0761'
p2488
aS'PFD0085c'
p2489
aS'PFL2570w'
p2490
aS'PF07_0129'
p2491
atp2492
Rp2493
sg245
g1667
((lp2494
g1886
atp2495
Rp2496
sg247
(lp2497
sg248
(lp2498
sg249
g1667
((lp2499
S'PF14_0060'
p2500
atp2501
Rp2502
sg251
g1667
((lp2503
g1848
ag1714
ag1790
atp2504
Rp2505
sg253
(lp2506
sg254
g1667
((lp2507
g1719
atp2508
Rp2509
sg256
g1667
((lp2510
g1851
atp2511
Rp2512
sg258
g1667
((lp2513
g1897
atp2514
Rp2515
sg260
g1667
((lp2516
g1782
atp2517
Rp2518
sg262
g1667
((lp2519
g1818
atp2520
Rp2521
sg264
(lp2522
sg265
(lp2523
sg266
g1667
((lp2524
g1722
atp2525
Rp2526
sg268
(lp2527
sg269
g1667
((lp2528
g1952
atp2529
Rp2530
sg271
g1667
((lp2531
S'PFI0880c'
p2532
atp2533
Rp2534
sg273
g1667
((lp2535
S'PFL0305c'
p2536
atp2537
Rp2538
sg275
(lp2539
sg276
g1667
((lp2540
g1684
atp2541
Rp2542
sg278
g1667
((lp2543
g1748
atp2544
Rp2545
sg280
(lp2546
sg281
(lp2547
sg282
g1667
((lp2548
S'PFL0420w'
p2549
aS'PF11_0334'
p2550
aS'PFE0775c'
p2551
aS'PFL1515c'
p2552
aS'PFF1430c'
p2553
aS'PFB0435c'
p2554
atp2555
Rp2556
sg284
g1667
((lp2557
S'PF07_0005'
p2558
aS'PF14_0737'
p2559
aS'PF14_0017'
p2560
aS'PF10_0379'
p2561
aS'PF07_0040'
p2562
aS'PF14_0738'
p2563
atp2564
Rp2565
sg286
g1667
((lp2566
g1757
ag1972
ag1777
ag1923
ag1677
ag1975
atp2567
Rp2568
sg288
g1667
((lp2569
g2002
atp2570
Rp2571
sg290
(lp2572
sg291
g1667
((lp2573
g1878
atp2574
Rp2575
sg293
g1667
((lp2576
g1929
atp2577
Rp2578
sg295
g1667
((lp2579
g1680
atp2580
Rp2581
sg297
(lp2582
sg298
(lp2583
sg299
g1667
((lp2584
g1852
atp2585
Rp2586
sg301
g1667
((lp2587
g1697
atp2588
Rp2589
sg303
(lp2590
sg304
g1667
((lp2591
g1954
atp2592
Rp2593
sg306
g1667
((lp2594
g1712
atp2595
Rp2596
sg308
g1667
((lp2597
g1756
atp2598
Rp2599
sg310
(lp2600
sg311
g1667
((lp2601
g1910
atp2602
Rp2603
sg313
g1667
((lp2604
S'PF07_0005'
p2605
aS'PF14_0737'
p2606
aS'PF14_0017'
p2607
aS'PF10_0379'
p2608
aS'PF07_0040'
p2609
aS'PF14_0738'
p2610
atp2611
Rp2612
sg315
g1667
((lp2613
g2011
ag1735
atp2614
Rp2615
sg317
g1667
((lp2616
g1832
atp2617
Rp2618
sg319
g1667
((lp2619
S'PFB0410c'
p2620
atp2621
Rp2622
sg321
g1667
((lp2623
g2020
atp2624
Rp2625
sg323
g1667
((lp2626
S'PFL0420w'
p2627
aS'PF11_0334'
p2628
aS'PFE0775c'
p2629
aS'PFL1515c'
p2630
aS'PFF1430c'
p2631
aS'PFB0435c'
p2632
atp2633
Rp2634
sg325
(lp2635
sg326
(lp2636
sg327
g1667
((lp2637
g1942
aS'PF10_0334'
p2638
atp2639
Rp2640
sg329
g1667
((lp2641
S'PF14_0751'
p2642
aS'PFC0050c'
p2643
aS'PFE1250w'
p2644
aS'PFB0685c'
p2645
aS'PFF0945c'
p2646
aS'MAL13P1_485'
p2647
aS'PFL1880w'
p2648
aS'PFB0695c'
p2649
aS'PF14_0761'
p2650
aS'PFD0085c'
p2651
aS'PFL2570w'
p2652
aS'PF07_0129'
p2653
atp2654
Rp2655
sg331
g1667
((lp2656
g1887
atp2657
Rp2658
sg333
g1667
((lp2659
S'PF14_0357'
p2660
atp2661
Rp2662
sg335
g1667
((lp2663
S'PFC0995c'
p2664
atp2665
Rp2666
sg337
g1667
((lp2667
g1938
atp2668
Rp2669
sg339
(lp2670
sg340
g1667
((lp2671
S'PFB0410c'
p2672
atp2673
Rp2674
sg342
g1667
((lp2675
S'PF14_0751'
p2676
aS'PFC0050c'
p2677
aS'PFE1250w'
p2678
aS'PFB0685c'
p2679
aS'PFF0945c'
p2680
aS'MAL13P1_485'
p2681
aS'PFL1880w'
p2682
aS'PFB0695c'
p2683
aS'PF14_0761'
p2684
aS'PFD0085c'
p2685
aS'PFL2570w'
p2686
aS'PF07_0129'
p2687
atp2688
Rp2689
sg344
g1667
((lp2690
g1928
atp2691
Rp2692
sg346
g1667
((lp2693
S'PFL0305c'
p2694
atp2695
Rp2696
sg348
g1667
((lp2697
g1710
ag1935
atp2698
Rp2699
sg350
g1667
((lp2700
S'PFF0275c'
p2701
aS'PF13_0349'
p2702
atp2703
Rp2704
sg352
g1667
((lp2705
S'PFF0275c'
p2706
aS'PF13_0349'
p2707
atp2708
Rp2709
sg354
g1667
((lp2710
S'PFF0275c'
p2711
aS'PF13_0349'
p2712
atp2713
Rp2714
sg356
g1667
((lp2715
S'PFF0275c'
p2716
aS'PF13_0349'
p2717
atp2718
Rp2719
sg358
g1667
((lp2720
S'PFF0275c'
p2721
aS'PF13_0349'
p2722
atp2723
Rp2724
sg360
g1667
((lp2725
S'PFF0275c'
p2726
aS'PF13_0349'
p2727
atp2728
Rp2729
sg362
g1667
((lp2730
S'PF07_0005'
p2731
aS'PF14_0737'
p2732
aS'PF14_0017'
p2733
aS'PF10_0379'
p2734
aS'PF07_0040'
p2735
aS'PF14_0738'
p2736
atp2737
Rp2738
sg364
g1667
((lp2739
g1778
atp2740
Rp2741
sg366
(lp2742
sg367
g1667
((lp2743
S'PF07_0005'
p2744
aS'PF14_0737'
p2745
aS'PF14_0017'
p2746
aS'PF10_0379'
p2747
aS'PF07_0040'
p2748
aS'PF14_0738'
p2749
atp2750
Rp2751
sg369
(lp2752
sg370
(lp2753
sg371
(lp2754
sg372
(lp2755
sg373
g1667
((lp2756
S'PF13_0285'
p2757
aS'PF07_0024'
p2758
atp2759
Rp2760
sg375
(lp2761
sg376
(lp2762
sg377
(lp2763
sg378
(lp2764
sg379
g1667
((lp2765
S'PF07_0005'
p2766
aS'PF14_0737'
p2767
aS'PF14_0017'
p2768
aS'PF10_0379'
p2769
aS'PF07_0040'
p2770
aS'PF14_0738'
p2771
atp2772
Rp2773
sg381
(lp2774
sg382
(lp2775
sg383
(lp2776
sg384
g1667
((lp2777
S'PFL0305c'
p2778
atp2779
Rp2780
sg386
(lp2781
sg387
g1667
((lp2782
g1894
atp2783
Rp2784
sg389
(lp2785
sg390
g1667
((lp2786
S'PF07_0005'
p2787
aS'PF14_0737'
p2788
aS'PF14_0017'
p2789
aS'PF10_0379'
p2790
aS'PF07_0040'
p2791
aS'PF14_0738'
p2792
atp2793
Rp2794
sg392
g1667
((lp2795
g1796
atp2796
Rp2797
sg394
g1667
((lp2798
g1708
atp2799
Rp2800
sg396
g1667
((lp2801
S'PF14_0421'
p2802
atp2803
Rp2804
sg398
(lp2805
sg399
g1667
((lp2806
S'PFB0200c'
p2807
atp2808
Rp2809
sg401
(lp2810
sg402
g1667
((lp2811
S'PF13_0100'
p2812
aS'PFL0620c'
p2813
atp2814
Rp2815
sg404
g1667
((lp2816
g1675
atp2817
Rp2818
sg406
(lp2819
sg407
(lp2820
sg408
g1667
((lp2821
g1776
atp2822
Rp2823
sg410
(lp2824
sg411
g1667
((lp2825
S'PFF0275c'
p2826
aS'PF13_0349'
p2827
atp2828
Rp2829
sg413
(lp2830
sg414
g1667
((lp2831
g1870
atp2832
Rp2833
sg416
g1667
((lp2834
S'PFL0420w'
p2835
aS'PF11_0334'
p2836
aS'PFE0775c'
p2837
aS'PFL1515c'
p2838
aS'PFF1430c'
p2839
aS'PFB0435c'
p2840
atp2841
Rp2842
sg418
g1667
((lp2843
g1788
atp2844
Rp2845
sg420
g1667
((lp2846
S'PFF0775w'
p2847
atp2848
Rp2849
sg422
g1667
((lp2850
S'PF07_0005'
p2851
aS'PF14_0737'
p2852
aS'PF14_0017'
p2853
aS'PF10_0379'
p2854
aS'PF07_0040'
p2855
aS'PF14_0738'
p2856
atp2857
Rp2858
sg424
g1667
((lp2859
S'PFI1370c'
p2860
atp2861
Rp2862
sg426
g1667
((lp2863
g1957
atp2864
Rp2865
sg428
g1667
((lp2866
S'PF14_0751'
p2867
aS'PFC0050c'
p2868
aS'PFE1250w'
p2869
aS'PFB0685c'
p2870
aS'PFF0945c'
p2871
aS'MAL13P1_485'
p2872
aS'PFL1880w'
p2873
aS'PFB0695c'
p2874
aS'PF14_0761'
p2875
aS'PFD0085c'
p2876
aS'PFL2570w'
p2877
aS'PF07_0129'
p2878
atp2879
Rp2880
sg430
g1667
((lp2881
S'PFF1490w'
p2882
atp2883
Rp2884
sg432
g1667
((lp2885
S'PFB0295w'
p2886
atp2887
Rp2888
sg434
g1667
((lp2889
g1750
atp2890
Rp2891
sg436
g1667
((lp2892
g1953
atp2893
Rp2894
sg438
g1667
((lp2895
S'PFL0420w'
p2896
aS'PF11_0334'
p2897
aS'PFE0775c'
p2898
aS'PFL1515c'
p2899
aS'PFF1430c'
p2900
aS'PFB0435c'
p2901
atp2902
Rp2903
sg440
g1667
((lp2904
S'PF07_0005'
p2905
aS'PF14_0737'
p2906
aS'PF14_0017'
p2907
aS'PF10_0379'
p2908
aS'PF07_0040'
p2909
aS'PF14_0738'
p2910
atp2911
Rp2912
sg442
g1667
((lp2913
S'PF13_0353'
p2914
atp2915
Rp2916
sg444
(lp2917
sg445
(lp2918
sg446
(lp2919
sg447
g1667
((lp2920
S'PF13_0128'
p2921
atp2922
Rp2923
sg449
(lp2924
sg450
(lp2925
sg451
g1667
((lp2926
g1720
ag1967
atp2927
Rp2928
sg453
(lp2929
sg454
(lp2930
sg455
g1667
((lp2931
S'PFI1125c'
p2932
atp2933
Rp2934
sg457
g1667
((lp2935
g1904
ag1761
atp2936
Rp2937
sg459
g1667
((lp2938
S'PF13_0089'
p2939
atp2940
Rp2941
sg461
g1667
((lp2942
S'PF07_0005'
p2943
aS'PF14_0737'
p2944
aS'PF14_0017'
p2945
aS'PF10_0379'
p2946
aS'PF07_0040'
p2947
aS'PF14_0738'
p2948
atp2949
Rp2950
sg463
(lp2951
sg464
g1667
((lp2952
g2006
atp2953
Rp2954
sg466
g1667
((lp2955
g1706
ag1752
atp2956
Rp2957
sg468
(lp2958
sg469
(lp2959
sg470
g1667
((lp2960
S'PFI1125c'
p2961
atp2962
Rp2963
sg472
(lp2964
sg473
(lp2965
sg474
g1667
((lp2966
S'MAL13P1_210'
p2967
atp2968
Rp2969
sg476
(lp2970
sg477
g1667
((lp2971
S'PF11_0338'
p2972
atp2973
Rp2974
sg479
g1667
((lp2975
S'PFB0410c'
p2976
atp2977
Rp2978
sg481
(lp2979
sg482
g1667
((lp2980
g1932
aS'PF08_0066'
p2981
aS'PFL1550w'
p2982
atp2983
Rp2984
sg484
(lp2985
sg485
g1667
((lp2986
g1911
atp2987
Rp2988
sg487
(lp2989
sg488
g1667
((lp2990
S'MAL13P1_324'
p2991
atp2992
Rp2993
sg490
g1667
((lp2994
g1913
ag1817
atp2995
Rp2996
sg492
(lp2997
sg493
g1667
((lp2998
g1940
atp2999
Rp3000
sg495
g1667
((lp3001
S'MAL13P1_335'
p3002
atp3003
Rp3004
sg497
(lp3005
sg498
g1667
((lp3006
g2009
atp3007
Rp3008
sg500
(lp3009
sg501
g1667
((lp3010
g1875
atp3011
Rp3012
sg503
g1667
((lp3013
g1678
atp3014
Rp3015
sg505
(lp3016
sg506
g1667
((lp3017
g1906
atp3018
Rp3019
sg508
g1667
((lp3020
S'PF14_0484'
p3021
atp3022
Rp3023
sg510
g1667
((lp3024
g1896
ag1737
atp3025
Rp3026
sg512
g1667
((lp3027
S'PF14_0484'
p3028
atp3029
Rp3030
sg514
g1667
((lp3031
S'PF14_0484'
p3032
atp3033
Rp3034
sg516
g1667
((lp3035
S'PF14_0484'
p3036
atp3037
Rp3038
sg518
g1667
((lp3039
S'PF14_0484'
p3040
atp3041
Rp3042
sg520
(lp3043
sg521
g1667
((lp3044
S'PF14_0484'
p3045
atp3046
Rp3047
sg523
g1667
((lp3048
g1937
atp3049
Rp3050
sg525
g1667
((lp3051
S'PF07_0005'
p3052
aS'PF14_0737'
p3053
aS'PF14_0017'
p3054
aS'PF10_0379'
p3055
aS'PF07_0040'
p3056
aS'PF14_0738'
p3057
atp3058
Rp3059
sg527
(lp3060
sg528
g1667
((lp3061
g1902
atp3062
Rp3063
sg530
g1667
((lp3064
S'PFI0880c'
p3065
atp3066
Rp3067
sg532
g1667
((lp3068
S'PFL0620c'
p3069
atp3070
Rp3071
sg534
g1667
((lp3072
S'PF07_0005'
p3073
aS'PF14_0737'
p3074
aS'PF14_0017'
p3075
aS'PF10_0379'
p3076
aS'PF07_0040'
p3077
aS'PF14_0738'
p3078
atp3079
Rp3080
sg536
g1667
((lp3081
g1729
ag1919
atp3082
Rp3083
sg538
g1667
((lp3084
g2027
atp3085
Rp3086
sg540
g1667
((lp3087
g2000
atp3088
Rp3089
sg542
g1667
((lp3090
g1687
atp3091
Rp3092
sg544
g1667
((lp3093
S'PFB0505c'
p3094
aS'PFF1275c'
p3095
atp3096
Rp3097
sg546
g1667
((lp3098
g1918
atp3099
Rp3100
sg548
(lp3101
sg549
(lp3102
sg550
(lp3103
sg551
(lp3104
sg552
(lp3105
sg553
(lp3106
sg554
g1667
((lp3107
g1673
atp3108
Rp3109
sg556
g1667
((lp3110
S'PFI1125c'
p3111
atp3112
Rp3113
sg558
(lp3114
sg559
g1667
((lp3115
g1985
atp3116
Rp3117
sg561
g1667
((lp3118
g1859
atp3119
Rp3120
sg563
(lp3121
sg564
g1667
((lp3122
S'PFL0305c'
p3123
atp3124
Rp3125
sg566
g1667
((lp3126
g2022
atp3127
Rp3128
sg568
g1667
((lp3129
S'PF14_0060'
p3130
atp3131
Rp3132
sg570
g1667
((lp3133
g1754
atp3134
Rp3135
sg572
g1667
((lp3136
g1876
atp3137
Rp3138
sg574
g1667
((lp3139
S'PFI1125c'
p3140
aS'PFB0505c'
p3141
atp3142
Rp3143
sg576
(lp3144
sg577
g1667
((lp3145
S'PFI1485c'
p3146
aS'PF14_0681'
p3147
atp3148
Rp3149
sg579
g1667
((lp3150
S'PFI1485c'
p3151
aS'PF14_0681'
p3152
atp3153
Rp3154
sg581
g1667
((lp3155
g1931
atp3156
Rp3157
sg583
g1667
((lp3158
S'PFI1370c'
p3159
atp3160
Rp3161
sg585
g1667
((lp3162
g1921
atp3163
Rp3164
sg587
(lp3165
sg588
g1667
((lp3166
S'MAL8P1_32'
p3167
aS'PFA0160c'
p3168
aS'PF14_0662'
p3169
aS'PF13_0252'
p3170
atp3171
Rp3172
sg590
(lp3173
sg591
g1667
((lp3174
S'PFC0995c'
p3175
atp3176
Rp3177
sg593
g1667
((lp3178
g1798
ag1845
atp3179
Rp3180
sg595
g1667
((lp3181
S'PFL0420w'
p3182
aS'PF11_0334'
p3183
aS'PFE0775c'
p3184
aS'PFL1515c'
p3185
aS'PFF1430c'
p3186
aS'PFB0435c'
p3187
atp3188
Rp3189
sg597
g1667
((lp3190
g1861
atp3191
Rp3192
sg599
g1667
((lp3193
g1696
atp3194
Rp3195
sg601
g1667
((lp3196
S'PF14_0297'
p3197
ag1768
atp3198
Rp3199
sg603
g1667
((lp3200
S'PF14_0297'
p3201
aS'MAL13P1_248'
p3202
atp3203
Rp3204
sg605
g1667
((lp3205
S'PF07_0005'
p3206
aS'PF14_0737'
p3207
aS'PF14_0017'
p3208
aS'PF10_0379'
p3209
aS'PF07_0040'
p3210
aS'PF14_0738'
p3211
atp3212
Rp3213
sg607
g1667
((lp3214
g1753
ag1889
ag1936
ag2029
ag1808
ag1762
ag1801
atp3215
Rp3216
sg609
(lp3217
sg610
(lp3218
sg611
g1667
((lp3219
S'PFB0410c'
p3220
atp3221
Rp3222
sg613
g1667
((lp3223
S'PF14_0421'
p3224
atp3225
Rp3226
sg615
(lp3227
sg616
g1667
((lp3228
S'PFB0410c'
p3229
atp3230
Rp3231
sg618
g1667
((lp3232
S'MAL8P1_58'
p3233
atp3234
Rp3235
sg620
g1667
((lp3236
g1882
atp3237
Rp3238
sg622
g1667
((lp3239
S'MAL13P1_210'
p3240
atp3241
Rp3242
sg624
(lp3243
sg625
g1667
((lp3244
S'MAL13P1_210'
p3245
atp3246
Rp3247
sg627
(lp3248
sg628
(lp3249
sg629
g1667
((lp3250
S'PFL0420w'
p3251
aS'PF11_0334'
p3252
aS'PFE0775c'
p3253
aS'PFL1515c'
p3254
aS'PFF1430c'
p3255
aS'PFB0435c'
p3256
atp3257
Rp3258
sg631
g1667
((lp3259
S'PFB0505c'
p3260
aS'PFF1275c'
p3261
atp3262
Rp3263
sg633
g1667
((lp3264
g1829
ag1863
atp3265
Rp3266
sg635
g1667
((lp3267
S'PF14_0060'
p3268
atp3269
Rp3270
sg637
g1667
((lp3271
g1977
atp3272
Rp3273
sg639
(lp3274
sg640
(lp3275
sg641
(lp3276
sg642
g1667
((lp3277
S'PF14_0751'
p3278
aS'PFC0050c'
p3279
aS'PFE1250w'
p3280
aS'PFB0685c'
p3281
aS'PFF0945c'
p3282
aS'MAL13P1_485'
p3283
aS'PFL1880w'
p3284
aS'PFB0695c'
p3285
aS'PF14_0761'
p3286
aS'PFD0085c'
p3287
aS'PFL2570w'
p3288
aS'PF07_0129'
p3289
atp3290
Rp3291
sg644
g1667
((lp3292
g1733
atp3293
Rp3294
sg646
g1667
((lp3295
g1726
atp3296
Rp3297
sg648
(lp3298
sg649
g1667
((lp3299
S'PFL0420w'
p3300
aS'PF11_0334'
p3301
aS'PFE0775c'
p3302
aS'PFL1515c'
p3303
aS'PFF1430c'
p3304
aS'PFB0435c'
p3305
atp3306
Rp3307
sg651
g1667
((lp3308
S'PFF0730c'
p3309
atp3310
Rp3311
sg653
(lp3312
sg654
(lp3313
sg655
g1667
((lp3314
g1856
atp3315
Rp3316
sg657
g1667
((lp3317
S'PF10_0132'
p3318
atp3319
Rp3320
sg659
g1667
((lp3321
S'PFL0305c'
p3322
atp3323
Rp3324
sg661
(lp3325
sg662
g1667
((lp3326
S'PF13_0100'
p3327
aS'PFL0620c'
p3328
atp3329
Rp3330
sg664
(lp3331
sg665
(lp3332
sg666
g1667
((lp3333
S'MAL8P1_32'
p3334
aS'PFA0160c'
p3335
aS'PF14_0662'
p3336
aS'PF13_0252'
p3337
atp3338
Rp3339
sg668
g1667
((lp3340
g2024
atp3341
Rp3342
sg670
g1667
((lp3343
g1866
atp3344
Rp3345
sg672
g1667
((lp3346
S'PFC0995c'
p3347
atp3348
Rp3349
sg674
(lp3350
sg675
(lp3351
sg676
g1667
((lp3352
S'PFC0995c'
p3353
atp3354
Rp3355
sg678
g1667
((lp3356
S'PFC0995c'
p3357
atp3358
Rp3359
sg680
(lp3360
sg681
g1667
((lp3361
S'PF07_0005'
p3362
aS'PF14_0737'
p3363
aS'PF14_0017'
p3364
aS'PF10_0379'
p3365
aS'PF07_0040'
p3366
aS'PF14_0738'
p3367
atp3368
Rp3369
sg683
g1667
((lp3370
g1730
atp3371
Rp3372
sg685
(lp3373
sg686
g1667
((lp3374
S'PFF1155w'
p3375
atp3376
Rp3377
sg688
g1667
((lp3378
g1883
atp3379
Rp3380
sg690
g1667
((lp3381
g1825
atp3382
Rp3383
sg692
g1667
((lp3384
S'PFF1155w'
p3385
atp3386
Rp3387
sg694
g1667
((lp3388
S'PFI1125c'
p3389
atp3390
Rp3391
sg696
g1667
((lp3392
g1983
atp3393
Rp3394
sg698
g1667
((lp3395
S'PFB0410c'
p3396
atp3397
Rp3398
sg700
g1667
((lp3399
g1920
atp3400
Rp3401
sg702
g1667
((lp3402
S'MAL8P1_32'
p3403
aS'PFA0160c'
p3404
aS'PF14_0662'
p3405
aS'PF13_0252'
p3406
atp3407
Rp3408
sg704
g1667
((lp3409
S'PFE0660c'
p3410
atp3411
Rp3412
sg706
g1667
((lp3413
S'PFE0660c'
p3414
atp3415
Rp3416
sg708
g1667
((lp3417
S'PFE0660c'
p3418
atp3419
Rp3420
sg710
g1667
((lp3421
S'PFE0660c'
p3422
atp3423
Rp3424
sg712
g1667
((lp3425
S'PF14_0751'
p3426
aS'PFC0050c'
p3427
aS'PFE1250w'
p3428
aS'PFB0685c'
p3429
aS'PFF0945c'
p3430
aS'MAL13P1_485'
p3431
aS'PFL1880w'
p3432
aS'PFB0695c'
p3433
aS'PF14_0761'
p3434
aS'PFD0085c'
p3435
aS'PFL2570w'
p3436
aS'PF07_0129'
p3437
atp3438
Rp3439
sg714
(lp3440
sg715
g1667
((lp3441
g2028
atp3442
Rp3443
sg717
(lp3444
sg718
(lp3445
sg719
g1667
((lp3446
S'MAL8P1_32'
p3447
aS'PFA0160c'
p3448
aS'PF14_0662'
p3449
aS'PF13_0252'
p3450
atp3451
Rp3452
sg721
g1667
((lp3453
g2031
atp3454
Rp3455
sg723
(lp3456
sg724
g1667
((lp3457
S'PFE0660c'
p3458
atp3459
Rp3460
sg726
(lp3461
sg727
g1667
((lp3462
S'PFL0305c'
p3463
atp3464
Rp3465
sg729
g1667
((lp3466
S'MAL8P1_32'
p3467
ag1764
aS'PFA0160c'
p3468
aS'PF14_0662'
p3469
aS'PF13_0252'
p3470
atp3471
Rp3472
sg731
g1667
((lp3473
S'PF07_0005'
p3474
aS'PF14_0737'
p3475
aS'PF14_0017'
p3476
aS'PF10_0379'
p3477
aS'PF07_0040'
p3478
aS'PF14_0738'
p3479
atp3480
Rp3481
sg733
g1667
((lp3482
g1961
atp3483
Rp3484
sg735
(lp3485
sg736
(lp3486
sg737
(lp3487
sg738
(lp3488
sg739
g1667
((lp3489
S'PF14_0060'
p3490
atp3491
Rp3492
sg741
(lp3493
sg742
g1667
((lp3494
S'PF14_0060'
p3495
atp3496
Rp3497
sg744
g1667
((lp3498
S'PF14_0060'
p3499
atp3500
Rp3501
sg746
g1667
((lp3502
S'PF14_0060'
p3503
atp3504
Rp3505
sg748
(lp3506
sg749
g1667
((lp3507
S'PFA0590w'
p3508
atp3509
Rp3510
sg751
(lp3511
sg752
g1667
((lp3512
S'PFI1125c'
p3513
atp3514
Rp3515
sg754
g1667
((lp3516
S'PFF0730c'
p3517
atp3518
Rp3519
sg756
g1667
((lp3520
g1830
atp3521
Rp3522
sg758
g1667
((lp3523
g1970
atp3524
Rp3525
sg760
(lp3526
sg761
g1667
((lp3527
S'PF10_0154'
p3528
aS'PF14_0053'
p3529
aS'PF14_0352'
p3530
atp3531
Rp3532
sg763
(lp3533
sg764
g1667
((lp3534
S'PF10_0154'
p3535
aS'PF14_0053'
p3536
aS'PF14_0352'
p3537
atp3538
Rp3539
sg766
g1667
((lp3540
S'PF10_0154'
p3541
aS'PF14_0053'
p3542
aS'PF14_0352'
p3543
atp3544
Rp3545
sg768
g1667
((lp3546
g1995
ag1864
ag1842
atp3547
Rp3548
sg770
g1667
((lp3549
S'PF07_0005'
p3550
aS'PF14_0737'
p3551
aS'PF14_0017'
p3552
aS'PF10_0379'
p3553
aS'PF07_0040'
p3554
aS'PF14_0738'
p3555
atp3556
Rp3557
sg772
(lp3558
sg773
(lp3559
sg774
g1667
((lp3560
S'PF07_0005'
p3561
aS'PF14_0737'
p3562
aS'PF14_0017'
p3563
aS'PF10_0379'
p3564
aS'PF07_0040'
p3565
aS'PF14_0738'
p3566
atp3567
Rp3568
sg776
(lp3569
sg777
g1667
((lp3570
g1805
atp3571
Rp3572
sg779
g1667
((lp3573
g1841
atp3574
Rp3575
sg781
g1667
((lp3576
g1857
atp3577
Rp3578
sg783
(lp3579
sg784
g1667
((lp3580
S'PF11_0436'
p3581
atp3582
Rp3583
sg786
g1667
((lp3584
g2032
atp3585
Rp3586
sg788
g1667
((lp3587
S'PFL0305c'
p3588
atp3589
Rp3590
sg790
(lp3591
sg791
g1667
((lp3592
g1810
atp3593
Rp3594
sg793
(lp3595
sg794
(lp3596
sg795
g1667
((lp3597
g1951
atp3598
Rp3599
sg797
g1667
((lp3600
S'PF13_0128'
p3601
atp3602
Rp3603
sg799
(lp3604
sg800
(lp3605
sg801
(lp3606
sg802
(lp3607
sg803
(lp3608
sg804
g1667
((lp3609
S'PF07_0005'
p3610
aS'PF14_0737'
p3611
aS'PF14_0017'
p3612
aS'PF10_0379'
p3613
aS'PF07_0040'
p3614
aS'PF14_0738'
p3615
atp3616
Rp3617
sg806
(lp3618
sg807
g1667
((lp3619
g1990
ag1991
ag1914
ag1994
ag1948
ag1823
atp3620
Rp3621
sg809
g1667
((lp3622
g1838
ag1837
atp3623
Rp3624
sg811
(lp3625
sg812
g1667
((lp3626
g1780
atp3627
Rp3628
sg814
g1667
((lp3629
g1713
atp3630
Rp3631
sg816
g1667
((lp3632
S'MAL8P1_58'
p3633
atp3634
Rp3635
sg818
g1667
((lp3636
S'PF13_0128'
p3637
atp3638
Rp3639
sg820
g1667
((lp3640
g1987
atp3641
Rp3642
sg822
g1667
((lp3643
S'PF07_0005'
p3644
aS'PF14_0737'
p3645
aS'PF14_0017'
p3646
aS'PF10_0379'
p3647
aS'PF07_0040'
p3648
aS'PF14_0738'
p3649
atp3650
Rp3651
sg824
g1667
((lp3652
g1976
atp3653
Rp3654
sg826
g1667
((lp3655
S'PF07_0005'
p3656
aS'PF14_0737'
p3657
aS'PF14_0017'
p3658
aS'PF10_0379'
p3659
aS'PF07_0040'
p3660
aS'PF14_0738'
p3661
atp3662
Rp3663
sg828
g1667
((lp3664
g1744
atp3665
Rp3666
sg830
g1667
((lp3667
g1964
atp3668
Rp3669
sg832
g1667
((lp3670
g1711
atp3671
Rp3672
sg834
(lp3673
sg835
g1667
((lp3674
S'PF13_0100'
p3675
aS'PFL0620c'
p3676
atp3677
Rp3678
sg837
(lp3679
sg838
g1667
((lp3680
S'PF13_0128'
p3681
atp3682
Rp3683
sg840
g1667
((lp3684
S'PFL0420w'
p3685
aS'PF11_0334'
p3686
aS'PFE0775c'
p3687
aS'PFL1515c'
p3688
aS'PFF1430c'
p3689
aS'PFB0435c'
p3690
atp3691
Rp3692
sg842
(lp3693
sg843
g1667
((lp3694
g2023
atp3695
Rp3696
sg845
g1667
((lp3697
S'MAL8P1_58'
p3698
atp3699
Rp3700
sg847
g1667
((lp3701
S'MAL8P1_58'
p3702
atp3703
Rp3704
sg849
(lp3705
sg850
(lp3706
sg851
g1667
((lp3707
S'PF11_0352'
p3708
aS'PF13_0272'
p3709
aS'PF14_0694'
p3710
aS'PFI0950w'
p3711
aS'MAL8P1_17'
p3712
atp3713
Rp3714
sg853
(lp3715
sg854
(lp3716
sg855
g1667
((lp3717
g1941
ag1901
aS'PFE0715w'
p3718
atp3719
Rp3720
sg857
(lp3721
sg858
(lp3722
sg859
g1667
((lp3723
g1785
atp3724
Rp3725
sg861
(lp3726
sg862
g1667
((lp3727
S'PF14_0060'
p3728
atp3729
Rp3730
sg864
g1667
((lp3731
S'PF14_0421'
p3732
atp3733
Rp3734
sg866
(lp3735
sg867
(lp3736
sg868
(lp3737
sg869
g1667
((lp3738
g1969
atp3739
Rp3740
sg871
(lp3741
sg872
g1667
((lp3742
S'PFC0995c'
p3743
atp3744
Rp3745
sg874
g1667
((lp3746
S'PFL0420w'
p3747
aS'PF11_0334'
p3748
aS'PFE0775c'
p3749
aS'PFL1515c'
p3750
aS'PFF1430c'
p3751
aS'PFB0435c'
p3752
atp3753
Rp3754
sg876
g1667
((lp3755
S'PF14_0097'
p3756
atp3757
Rp3758
sg878
(lp3759
sg879
g1667
((lp3760
g1955
atp3761
Rp3762
sg881
g1667
((lp3763
S'PF07_0005'
p3764
aS'PF14_0737'
p3765
aS'PF14_0017'
p3766
aS'PF10_0379'
p3767
aS'PF07_0040'
p3768
aS'PF14_0738'
p3769
atp3770
Rp3771
sg883
g1667
((lp3772
S'MAL8P1_32'
p3773
aS'PFA0160c'
p3774
aS'PF14_0662'
p3775
aS'PF13_0252'
p3776
atp3777
Rp3778
sg885
g1667
((lp3779
g1736
ag1746
atp3780
Rp3781
sg887
g1667
((lp3782
S'PFL0420w'
p3783
aS'PF11_0334'
p3784
aS'PFE0775c'
p3785
aS'PFL1515c'
p3786
aS'PFF1430c'
p3787
aS'PFB0435c'
p3788
atp3789
Rp3790
sg889
g1667
((lp3791
S'PFL0420w'
p3792
aS'PF11_0334'
p3793
aS'PFE0775c'
p3794
aS'PFL1515c'
p3795
aS'PFF1430c'
p3796
aS'PFB0435c'
p3797
atp3798
Rp3799
sg891
g1667
((lp3800
S'PFL0420w'
p3801
aS'PF11_0334'
p3802
aS'PFE0775c'
p3803
aS'PFL1515c'
p3804
aS'PFF1430c'
p3805
aS'PFB0435c'
p3806
atp3807
Rp3808
sg893
(lp3809
sg894
g1667
((lp3810
S'PF13_0128'
p3811
atp3812
Rp3813
sg896
(lp3814
sg897
(lp3815
sg898
g1667
((lp3816
S'PFE0660c'
p3817
atp3818
Rp3819
sg900
(lp3820
sg901
g1667
((lp3821
S'PFB0505c'
p3822
aS'PFF1275c'
p3823
atp3824
Rp3825
sg903
g1667
((lp3826
g1812
atp3827
Rp3828
sg905
(lp3829
sg906
(lp3830
sg907
g1667
((lp3831
S'PFI1125c'
p3832
atp3833
Rp3834
sg909
(lp3835
sg910
(lp3836
sg911
g1667
((lp3837
S'PFE0660c'
p3838
atp3839
Rp3840
sg913
(lp3841
sg914
(lp3842
sg915
(lp3843
sg916
(lp3844
sg917
g1667
((lp3845
S'PF11_0427'
p3846
atp3847
Rp3848
sg919
g1667
((lp3849
S'PFL0420w'
p3850
aS'PF11_0334'
p3851
aS'PFE0775c'
p3852
aS'PFL1515c'
p3853
aS'PFF1430c'
p3854
aS'PFB0435c'
p3855
atp3856
Rp3857
sg921
g1667
((lp3858
g1774
ag1789
atp3859
Rp3860
sg923
g1667
((lp3861
S'MAL8P1_32'
p3862
aS'PFA0160c'
p3863
aS'PF14_0662'
p3864
aS'PF13_0252'
p3865
atp3866
Rp3867
sg925
(lp3868
sg926
(lp3869
sg927
(lp3870
sg928
(lp3871
sg929
g1667
((lp3872
S'PFA0555c'
p3873
atp3874
Rp3875
sg931
g1667
((lp3876
S'MAL13P1_292'
p3877
atp3878
Rp3879
sg933
g1667
((lp3880
S'PFA0555c'
p3881
atp3882
Rp3883
sg935
g1667
((lp3884
S'PFI1370c'
p3885
atp3886
Rp3887
sg937
g1667
((lp3888
S'PFI1370c'
p3889
atp3890
Rp3891
sg939
(lp3892
sg940
g1667
((lp3893
g1899
atp3894
Rp3895
sg942
g1667
((lp3896
S'MAL13P1_324'
p3897
atp3898
Rp3899
sg944
g1667
((lp3900
g1819
atp3901
Rp3902
sg946
(lp3903
sg947
(lp3904
sg948
(lp3905
sg949
g1667
((lp3906
g1723
atp3907
Rp3908
sg951
g1667
((lp3909
S'PF13_0100'
p3910
aS'PFL0620c'
p3911
atp3912
Rp3913
sg953
(lp3914
sg954
g1667
((lp3915
S'PFB0410c'
p3916
atp3917
Rp3918
sg956
g1667
((lp3919
g1850
atp3920
Rp3921
sg958
g1667
((lp3922
g1809
atp3923
Rp3924
sg960
g1667
((lp3925
S'PFE0660c'
p3926
atp3927
Rp3928
sg962
(lp3929
sg963
g1667
((lp3930
g1924
ag1727
atp3931
Rp3932
sg965
g1667
((lp3933
S'PF14_0570'
p3934
atp3935
Rp3936
sg967
(lp3937
sg968
(lp3938
sg969
g1667
((lp3939
S'PF10_0334'
p3940
atp3941
Rp3942
sg971
(lp3943
sg972
g1667
((lp3944
S'PFL0420w'
p3945
aS'PF11_0334'
p3946
aS'PFE0775c'
p3947
aS'PFL1515c'
p3948
aS'PFF1430c'
p3949
aS'PFB0435c'
p3950
atp3951
Rp3952
sg974
g1667
((lp3953
g1765
atp3954
Rp3955
sg976
(lp3956
sg977
(lp3957
sg978
(lp3958
sg979
(lp3959
sg980
(lp3960
sg981
g1667
((lp3961
S'PF13_0229'
p3962
atp3963
Rp3964
sg983
(lp3965
sg984
g1667
((lp3966
g2019
atp3967
Rp3968
sg986
g1667
((lp3969
g1895
ag2026
ag1803
ag2004
atp3970
Rp3971
sg988
g1667
((lp3972
g1771
ag1672
atp3973
Rp3974
sg990
(lp3975
sg991
g1667
((lp3976
S'PF11_0436'
p3977
atp3978
Rp3979
sg993
g1667
((lp3980
S'PFI1420w'
p3981
atp3982
Rp3983
sg995
(lp3984
sg996
g1667
((lp3985
g2014
atp3986
Rp3987
sg998
g1667
((lp3988
S'PFI1125c'
p3989
aS'PFB0505c'
p3990
atp3991
Rp3992
sg1000
g1667
((lp3993
S'PFL0420w'
p3994
aS'PF11_0334'
p3995
aS'PFE0775c'
p3996
aS'PFL1515c'
p3997
aS'PFF1430c'
p3998
aS'PFB0435c'
p3999
atp4000
Rp4001
sg1002
(lp4002
sg1003
(lp4003
sg1004
g1667
((lp4004
S'MAL13P1_119'
p4005
aS'MAL13P1_118'
p4006
aS'PF14_0672'
p4007
aS'PFL0475w'
p4008
atp4009
Rp4010
sg1006
g1667
((lp4011
S'PFF0730c'
p4012
atp4013
Rp4014
sg1008
(lp4015
sg1009
g1667
((lp4016
S'PFL0420w'
p4017
aS'PF11_0334'
p4018
aS'PFE0775c'
p4019
aS'PFL1515c'
p4020
aS'PFF1430c'
p4021
aS'PFB0435c'
p4022
atp4023
Rp4024
sg1011
(lp4025
sg1012
(lp4026
sg1013
g1667
((lp4027
S'PF07_0005'
p4028
aS'PF14_0737'
p4029
aS'PF14_0017'
p4030
aS'PF10_0379'
p4031
aS'PF07_0040'
p4032
aS'PF14_0738'
p4033
atp4034
Rp4035
sg1015
g1667
((lp4036
S'PF07_0005'
p4037
aS'PF14_0737'
p4038
aS'PF14_0017'
p4039
aS'PF10_0379'
p4040
aS'PF07_0040'
p4041
aS'PF14_0738'
p4042
atp4043
Rp4044
sg1017
(lp4045
sg1018
g1667
((lp4046
S'PFI1125c'
p4047
atp4048
Rp4049
sg1020
g1667
((lp4050
S'PF14_0751'
p4051
aS'PFC0050c'
p4052
aS'PFE1250w'
p4053
aS'PFB0685c'
p4054
aS'PFF0945c'
p4055
aS'MAL13P1_485'
p4056
aS'PFL1880w'
p4057
aS'PFB0695c'
p4058
aS'PF14_0761'
p4059
aS'PFD0085c'
p4060
aS'PFL2570w'
p4061
aS'PF07_0129'
p4062
atp4063
Rp4064
sg1022
g1667
((lp4065
S'PF07_0005'
p4066
aS'PF14_0737'
p4067
aS'PF14_0017'
p4068
aS'PF10_0379'
p4069
aS'PF07_0040'
p4070
aS'PF14_0738'
p4071
atp4072
Rp4073
sg1024
(lp4074
sg1025
g1667
((lp4075
g1997
atp4076
Rp4077
sg1027
(lp4078
sg1028
g1667
((lp4079
S'PFL0420w'
p4080
aS'PF11_0334'
p4081
aS'PFE0775c'
p4082
aS'PFL1515c'
p4083
aS'PFF1430c'
p4084
aS'PFB0435c'
p4085
atp4086
Rp4087
sg1030
g1667
((lp4088
S'PFB0410c'
p4089
atp4090
Rp4091
sg1032
g1667
((lp4092
S'PFB0410c'
p4093
atp4094
Rp4095
sg1034
(lp4096
sg1035
(lp4097
sg1036
g1667
((lp4098
g1783
atp4099
Rp4100
sg1038
g1667
((lp4101
S'PF07_0005'
p4102
aS'PF14_0737'
p4103
aS'PF14_0017'
p4104
aS'PF10_0379'
p4105
aS'PF07_0040'
p4106
aS'PF14_0738'
p4107
atp4108
Rp4109
sg1040
(lp4110
sg1041
(lp4111
sg1042
(lp4112
sg1043
(lp4113
sg1044
(lp4114
sg1045
(lp4115
sg1046
g1667
((lp4116
S'PF08_0066'
p4117
aS'PFL1550w'
p4118
ag1862
ag2010
ag1999
aS'PFC0170c'
p4119
atp4120
Rp4121
sg1048
g1667
((lp4122
g1854
atp4123
Rp4124
sg1050
(lp4125
sg1051
g1667
((lp4126
S'PF14_0097'
p4127
atp4128
Rp4129
sg1053
(lp4130
sg1054
(lp4131
sg1055
g1667
((lp4132
S'PFF0730c'
p4133
atp4134
Rp4135
sg1057
g1667
((lp4136
S'MAL13P1_326'
p4137
atp4138
Rp4139
sg1059
g1667
((lp4140
S'PFB0280w'
p4141
atp4142
Rp4143
sg1061
g1667
((lp4144
S'PFI1125c'
p4145
atp4146
Rp4147
sg1063
g1667
((lp4148
S'PF14_0421'
p4149
atp4150
Rp4151
sg1065
g1667
((lp4152
g1731
atp4153
Rp4154
sg1067
g1667
((lp4155
S'PF13_0140'
p4156
atp4157
Rp4158
sg1069
g1667
((lp4159
S'PFL0420w'
p4160
aS'PF11_0334'
p4161
aS'PFE0775c'
p4162
aS'PFL1515c'
p4163
aS'PFF1430c'
p4164
aS'PFB0435c'
p4165
atp4166
Rp4167
sg1071
g1667
((lp4168
S'PF14_0541'
p4169
aS'PFC0710w'
p4170
atp4171
Rp4172
sg1073
g1667
((lp4173
S'PFL0420w'
p4174
aS'PF11_0334'
p4175
aS'PFE0775c'
p4176
aS'PFL1515c'
p4177
aS'PFF1430c'
p4178
aS'PFB0435c'
p4179
atp4180
Rp4181
sg1075
g1667
((lp4182
S'PF10_0121'
p4183
atp4184
Rp4185
sg1077
(lp4186
sg1078
g1667
((lp4187
g1760
atp4188
Rp4189
sg1080
g1667
((lp4190
g1811
atp4191
Rp4192
sg1082
g1667
((lp4193
g1681
ag1963
atp4194
Rp4195
sg1084
(lp4196
sg1085
g1667
((lp4197
g1871
atp4198
Rp4199
sg1087
(lp4200
sg1088
g1667
((lp4201
S'PF14_0484'
p4202
atp4203
Rp4204
sg1090
g1667
((lp4205
S'PF10_0275'
p4206
atp4207
Rp4208
sg1092
(lp4209
sg1093
g1667
((lp4210
S'PF07_0005'
p4211
aS'PF14_0737'
p4212
aS'PF14_0017'
p4213
aS'PF10_0379'
p4214
aS'PF07_0040'
p4215
aS'PF14_0738'
p4216
atp4217
Rp4218
sg1095
(lp4219
sg1096
g1667
((lp4220
S'PF07_0005'
p4221
aS'PF14_0737'
p4222
aS'PF14_0017'
p4223
aS'PF10_0379'
p4224
aS'PF07_0040'
p4225
aS'PF14_0738'
p4226
atp4227
Rp4228
sg1098
g1667
((lp4229
g1980
ag1718
ag1688
atp4230
Rp4231
sg1100
g1667
((lp4232
S'PF11_0352'
p4233
aS'PF13_0272'
p4234
aS'PF14_0694'
p4235
aS'PFI0950w'
p4236
aS'MAL8P1_17'
p4237
atp4238
Rp4239
sg1102
(lp4240
sg1103
(lp4241
sg1104
g1667
((lp4242
S'MAL8P1_32'
p4243
aS'PFA0160c'
p4244
aS'PF14_0662'
p4245
aS'PF13_0252'
p4246
atp4247
Rp4248
sg1106
g1667
((lp4249
S'PFE1035c'
p4250
atp4251
Rp4252
sg1108
g1667
((lp4253
S'PF13_0100'
p4254
aS'PFL0620c'
p4255
atp4256
Rp4257
sg1110
g1667
((lp4258
g1933
ag1939
atp4259
Rp4260
sg1112
g1667
((lp4261
S'MAL8P1_32'
p4262
aS'PFA0160c'
p4263
aS'PF14_0662'
p4264
aS'PF13_0252'
p4265
atp4266
Rp4267
sg1114
g1667
((lp4268
S'PF11_0338'
p4269
atp4270
Rp4271
sg1116
(lp4272
sg1117
(lp4273
sg1118
g1667
((lp4274
g1806
atp4275
Rp4276
sg1120
g1667
((lp4277
S'PF07_0005'
p4278
aS'PF14_0737'
p4279
aS'PF14_0017'
p4280
aS'PF10_0379'
p4281
aS'PF07_0040'
p4282
aS'PF14_0738'
p4283
atp4284
Rp4285
sg1122
(lp4286
sg1123
(lp4287
sg1124
g1667
((lp4288
g2013
ag1927
ag1846
ag1949
atp4289
Rp4290
sg1126
g1667
((lp4291
g1973
atp4292
Rp4293
sg1128
g1667
((lp4294
g1769
atp4295
Rp4296
sg1130
g1667
((lp4297
S'PFE1030c'
p4298
atp4299
Rp4300
sg1132
g1667
((lp4301
S'MAL8P1_32'
p4302
aS'PFA0160c'
p4303
aS'PF14_0662'
p4304
aS'PF13_0252'
p4305
atp4306
Rp4307
sg1134
g1667
((lp4308
S'PFB0410c'
p4309
atp4310
Rp4311
sg1136
g1667
((lp4312
S'PF14_0097'
p4313
atp4314
Rp4315
sg1138
(lp4316
sg1139
(lp4317
sg1140
(lp4318
sg1141
(lp4319
sg1142
g1667
((lp4320
g1772
atp4321
Rp4322
sg1144
g1667
((lp4323
g2016
atp4324
Rp4325
sg1146
(lp4326
sg1147
g1667
((lp4327
g1836
atp4328
Rp4329
sg1149
(lp4330
sg1150
(lp4331
sg1151
g1667
((lp4332
g2001
atp4333
Rp4334
sg1153
(lp4335
sg1154
(lp4336
sg1155
(lp4337
sg1156
(lp4338
sg1157
g1667
((lp4339
S'PF13_0128'
p4340
atp4341
Rp4342
sg1159
g1667
((lp4343
S'PFB0410c'
p4344
atp4345
Rp4346
sg1161
(lp4347
sg1162
g1667
((lp4348
S'PFE1035c'
p4349
atp4350
Rp4351
sg1164
(lp4352
sg1165
(lp4353
sg1166
(lp4354
sg1167
g1667
((lp4355
g1709
atp4356
Rp4357
sg1169
g1667
((lp4358
S'PFB0505c'
p4359
aS'PFF1275c'
p4360
atp4361
Rp4362
sg1171
g1667
((lp4363
g1872
atp4364
Rp4365
sg1173
g1667
((lp4366
S'PFL0305c'
p4367
atp4368
Rp4369
sg1175
g1667
((lp4370
g1742
atp4371
Rp4372
sg1177
g1667
((lp4373
g1966
atp4374
Rp4375
sg1179
g1667
((lp4376
S'PF10_0322'
p4377
atp4378
Rp4379
sg1181
(lp4380
sg1182
g1667
((lp4381
S'PFB0505c'
p4382
aS'PFF1275c'
p4383
atp4384
Rp4385
sg1184
(lp4386
sg1185
g1667
((lp4387
S'PF07_0005'
p4388
aS'PF14_0737'
p4389
aS'PF14_0017'
p4390
aS'PF10_0379'
p4391
aS'PF07_0040'
p4392
aS'PF14_0738'
p4393
atp4394
Rp4395
sg1187
(lp4396
sg1188
g1667
((lp4397
g1903
atp4398
Rp4399
sg1190
g1667
((lp4400
S'PFB0505c'
p4401
aS'PFF1275c'
p4402
atp4403
Rp4404
sg1192
(lp4405
sg1193
g1667
((lp4406
g1843
atp4407
Rp4408
sg1195
(lp4409
sg1196
g1667
((lp4410
S'PF10_0122'
p4411
atp4412
Rp4413
sg1198
(lp4414
sg1199
g1667
((lp4415
g1704
atp4416
Rp4417
sg1201
g1667
((lp4418
S'PF14_0060'
p4419
atp4420
Rp4421
sg1203
(lp4422
sg1204
(lp4423
sg1205
(lp4424
sg1206
g1667
((lp4425
S'PF14_0097'
p4426
atp4427
Rp4428
sg1208
(lp4429
sg1209
g1667
((lp4430
S'PF14_0557'
p4431
atp4432
Rp4433
sg1211
g1667
((lp4434
S'PF07_0005'
p4435
aS'PF14_0737'
p4436
aS'PF14_0017'
p4437
aS'PF10_0379'
p4438
aS'PF07_0040'
p4439
aS'PF14_0738'
p4440
atp4441
Rp4442
sg1213
(lp4443
sg1214
g1667
((lp4444
S'PFB0410c'
p4445
atp4446
Rp4447
sg1216
g1667
((lp4448
S'MAL8P1_32'
p4449
aS'PFA0160c'
p4450
aS'PF14_0662'
p4451
aS'PF13_0252'
p4452
atp4453
Rp4454
sg1218
(lp4455
sg1219
g1667
((lp4456
S'PF10_0289'
p4457
atp4458
Rp4459
sg1221
(lp4460
sg1222
(lp4461
sg1223
g1667
((lp4462
g1755
atp4463
Rp4464
sg1225
g1667
((lp4465
S'MAL13P1_335'
p4466
atp4467
Rp4468
sg1227
g1667
((lp4469
S'MAL13P1_335'
p4470
atp4471
Rp4472
sg1229
g1667
((lp4473
S'PFB0410c'
p4474
atp4475
Rp4476
sg1231
g1667
((lp4477
S'PF07_0005'
p4478
aS'PF14_0737'
p4479
aS'PF14_0017'
p4480
aS'PF10_0379'
p4481
aS'PF07_0040'
p4482
aS'PF14_0738'
p4483
atp4484
Rp4485
sg1233
g1667
((lp4486
S'PFB0410c'
p4487
atp4488
Rp4489
sg1235
g1667
((lp4490
g1925
atp4491
Rp4492
sg1237
g1667
((lp4493
S'PFB0410c'
p4494
atp4495
Rp4496
sg1239
g1667
((lp4497
S'PFI1125c'
p4498
atp4499
Rp4500
sg1241
g1667
((lp4501
S'MAL8P1_32'
p4502
aS'PFA0160c'
p4503
aS'PF14_0662'
p4504
aS'PF13_0252'
p4505
atp4506
Rp4507
sg1243
(lp4508
sg1244
g1667
((lp4509
S'PF07_0005'
p4510
aS'PF14_0737'
p4511
aS'PF14_0017'
p4512
aS'PF10_0379'
p4513
aS'PF07_0040'
p4514
aS'PF14_0738'
p4515
atp4516
Rp4517
sg1246
g1667
((lp4518
S'PF07_0005'
p4519
aS'PF14_0737'
p4520
aS'PF14_0017'
p4521
aS'PF10_0379'
p4522
aS'PF07_0040'
p4523
aS'PF14_0738'
p4524
atp4525
Rp4526
sg1248
g1667
((lp4527
S'PFI1125c'
p4528
aS'PFB0505c'
p4529
atp4530
Rp4531
sg1250
(lp4532
sg1251
g1667
((lp4533
S'PF14_0421'
p4534
atp4535
Rp4536
sg1253
(lp4537
sg1254
g1667
((lp4538
S'PF07_0005'
p4539
aS'PF14_0737'
p4540
aS'PF14_0017'
p4541
aS'PF10_0379'
p4542
aS'PF07_0040'
p4543
aS'PF14_0738'
p4544
atp4545
Rp4546
sg1256
(lp4547
sg1257
g1667
((lp4548
S'PFL0420w'
p4549
aS'PF11_0334'
p4550
aS'PFE0775c'
p4551
aS'PFL1515c'
p4552
aS'PFF1430c'
p4553
aS'PFB0435c'
p4554
atp4555
Rp4556
sg1259
g1667
((lp4557
S'PF14_0484'
p4558
atp4559
Rp4560
sg1261
g1667
((lp4561
g1982
ag1947
atp4562
Rp4563
sg1263
g1667
((lp4564
g1828
atp4565
Rp4566
sg1265
g1667
((lp4567
g1831
atp4568
Rp4569
sg1267
(lp4570
sg1268
g1667
((lp4571
S'PF07_0005'
p4572
aS'PF14_0737'
p4573
aS'PF14_0017'
p4574
aS'PF10_0379'
p4575
aS'PF07_0040'
p4576
aS'PF14_0738'
p4577
atp4578
Rp4579
sg1270
(lp4580
sg1271
g1667
((lp4581
S'PFF0730c'
p4582
atp4583
Rp4584
sg1273
g1667
((lp4585
g1916
atp4586
Rp4587
sg1275
g1667
((lp4588
S'PFF0530w'
p4589
atp4590
Rp4591
sg1277
g1667
((lp4592
S'MAL8P1_32'
p4593
aS'PFA0160c'
p4594
aS'PF14_0662'
p4595
aS'PF13_0252'
p4596
atp4597
Rp4598
sg1279
g1667
((lp4599
S'PFL0305c'
p4600
atp4601
Rp4602
sg1281
g1667
((lp4603
S'PFL0305c'
p4604
atp4605
Rp4606
sg1283
g1667
((lp4607
g1984
atp4608
Rp4609
sg1285
g1667
((lp4610
S'PFL0305c'
p4611
atp4612
Rp4613
sg1287
g1667
((lp4614
S'PFB0410c'
p4615
atp4616
Rp4617
sg1289
g1667
((lp4618
S'PF07_0005'
p4619
aS'PF14_0737'
p4620
aS'PF14_0017'
p4621
aS'PF10_0379'
p4622
aS'PF07_0040'
p4623
aS'PF14_0738'
p4624
atp4625
Rp4626
sg1291
g1667
((lp4627
S'PF07_0005'
p4628
aS'PF14_0737'
p4629
aS'PF14_0017'
p4630
aS'PF10_0379'
p4631
aS'PF07_0040'
p4632
aS'PF14_0738'
p4633
atp4634
Rp4635
sg1293
(lp4636
sg1294
g1667
((lp4637
g1693
atp4638
Rp4639
sg1296
(lp4640
sg1297
g1667
((lp4641
S'PFL1550w'
p4642
aS'PF08_0066'
p4643
ag1893
ag1792
ag2008
atp4644
Rp4645
sg1299
g1667
((lp4646
S'PFE0555w'
p4647
atp4648
Rp4649
sg1301
g1667
((lp4650
S'PFI1485c'
p4651
aS'PF14_0681'
p4652
atp4653
Rp4654
sg1303
g1667
((lp4655
S'PFI1485c'
p4656
aS'PF14_0681'
p4657
atp4658
Rp4659
sg1305
(lp4660
sg1306
g1667
((lp4661
S'PF10_0275'
p4662
atp4663
Rp4664
sg1308
g1667
((lp4665
S'PFL0420w'
p4666
aS'PF11_0334'
p4667
aS'PFE0775c'
p4668
aS'PFL1515c'
p4669
aS'PFF1430c'
p4670
aS'PFB0435c'
p4671
atp4672
Rp4673
sg1310
(lp4674
sg1311
g1667
((lp4675
S'PF14_0751'
p4676
aS'PFC0050c'
p4677
aS'PFE1250w'
p4678
aS'PFB0685c'
p4679
aS'PFF0945c'
p4680
aS'MAL13P1_485'
p4681
aS'PFL1880w'
p4682
aS'PFB0695c'
p4683
aS'PF14_0761'
p4684
aS'PFD0085c'
p4685
aS'PFL2570w'
p4686
aS'PF07_0129'
p4687
atp4688
Rp4689
sg1313
(lp4690
sg1314
g1667
((lp4691
g1721
ag1908
atp4692
Rp4693
sg1316
(lp4694
sg1317
g1667
((lp4695
S'PFL0420w'
p4696
aS'PF11_0334'
p4697
aS'PFE0775c'
p4698
aS'PFL1515c'
p4699
aS'PFF1430c'
p4700
aS'PFB0435c'
p4701
atp4702
Rp4703
sg1319
g1667
((lp4704
S'PF07_0005'
p4705
aS'PF14_0737'
p4706
aS'PF14_0017'
p4707
aS'PF10_0379'
p4708
aS'PF07_0040'
p4709
aS'PF14_0738'
p4710
atp4711
Rp4712
sg1321
g1667
((lp4713
g2017
atp4714
Rp4715
sg1323
g1667
((lp4716
S'MAL8P1_32'
p4717
aS'PFA0160c'
p4718
aS'PF14_0662'
p4719
aS'PF13_0252'
p4720
atp4721
Rp4722
sg1325
g1667
((lp4723
S'MAL8P1_32'
p4724
aS'PFA0160c'
p4725
aS'PF14_0662'
p4726
aS'PF13_0252'
p4727
atp4728
Rp4729
sg1327
(lp4730
sg1328
(lp4731
sg1329
(lp4732
sg1330
g1667
((lp4733
g1971
atp4734
Rp4735
sg1332
g1667
((lp4736
S'PFL0305c'
p4737
atp4738
Rp4739
sg1334
g1667
((lp4740
g1907
atp4741
Rp4742
sg1336
g1667
((lp4743
g1679
atp4744
Rp4745
sg1338
g1667
((lp4746
S'PFF0775w'
p4747
atp4748
Rp4749
sg1340
g1667
((lp4750
S'PFF0730c'
p4751
atp4752
Rp4753
sg1342
g1667
((lp4754
g1978
ag1689
atp4755
Rp4756
sg1344
g1667
((lp4757
g1965
atp4758
Rp4759
sg1346
g1667
((lp4760
S'MAL7P1_130'
p4761
atp4762
Rp4763
sg1348
(lp4764
sg1349
(lp4765
sg1350
(lp4766
sg1351
g1667
((lp4767
g1849
atp4768
Rp4769
sg1353
g1667
((lp4770
S'MAL8P1_32'
p4771
aS'PFA0160c'
p4772
aS'PF14_0662'
p4773
aS'PF13_0252'
p4774
atp4775
Rp4776
sg1355
g1667
((lp4777
S'PF13_0128'
p4778
atp4779
Rp4780
sg1357
g1667
((lp4781
S'PFB0410c'
p4782
atp4783
Rp4784
sg1359
(lp4785
sg1360
g1667
((lp4786
S'MAL8P1_32'
p4787
aS'PFA0160c'
p4788
aS'PF14_0662'
p4789
aS'PF13_0252'
p4790
atp4791
Rp4792
sg1362
g1667
((lp4793
g1816
atp4794
Rp4795
sg1364
(lp4796
sg1365
g1667
((lp4797
S'PF07_0005'
p4798
aS'PF14_0737'
p4799
aS'PF14_0017'
p4800
aS'PF10_0379'
p4801
aS'PF07_0040'
p4802
aS'PF14_0738'
p4803
atp4804
Rp4805
sg1367
(lp4806
sg1368
g1667
((lp4807
S'MAL13P1_335'
p4808
atp4809
Rp4810
sg1370
g1667
((lp4811
g1758
atp4812
Rp4813
sg1372
g1667
((lp4814
g1968
atp4815
Rp4816
sg1374
g1667
((lp4817
S'PF07_0005'
p4818
aS'PF14_0737'
p4819
aS'PF14_0017'
p4820
aS'PF10_0379'
p4821
aS'PF07_0040'
p4822
aS'PF14_0738'
p4823
atp4824
Rp4825
sg1376
(lp4826
sg1377
g1667
((lp4827
g2015
atp4828
Rp4829
sg1379
g1667
((lp4830
S'PFB0410c'
p4831
atp4832
Rp4833
sg1381
(lp4834
sg1382
g1667
((lp4835
S'PF07_0005'
p4836
aS'PF14_0737'
p4837
aS'PF14_0017'
p4838
aS'PF10_0379'
p4839
aS'PF07_0040'
p4840
aS'PF14_0738'
p4841
atp4842
Rp4843
sg1384
(lp4844
sg1385
g1667
((lp4845
S'PF13_0128'
p4846
atp4847
Rp4848
sg1387
(lp4849
sg1388
g1667
((lp4850
g1944
atp4851
Rp4852
sg1390
g1667
((lp4853
S'PFF0730c'
p4854
atp4855
Rp4856
sg1392
g1667
((lp4857
S'PFC0995c'
p4858
atp4859
Rp4860
sg1394
g1667
((lp4861
S'PFC0995c'
p4862
atp4863
Rp4864
sg1396
g1667
((lp4865
S'PFB0410c'
p4866
atp4867
Rp4868
sg1398
(lp4869
sg1399
g1667
((lp4870
S'PFE0225w'
p4871
aS'PFC0170c'
p4872
aS'PF08_0066'
p4873
aS'PFL1550w'
p4874
atp4875
Rp4876
sg1401
(lp4877
sg1402
g1667
((lp4878
S'PFE0555w'
p4879
atp4880
Rp4881
sg1404
g1667
((lp4882
S'PF07_0005'
p4883
aS'PF14_0737'
p4884
aS'PF14_0017'
p4885
aS'PF10_0379'
p4886
aS'PF07_0040'
p4887
aS'PF14_0738'
p4888
atp4889
Rp4890
sg1406
(lp4891
sg1407
(lp4892
sg1408
(lp4893
sg1409
g1667
((lp4894
S'PFI0755c'
p4895
aS'PF11_0294'
p4896
atp4897
Rp4898
sg1411
g1667
((lp4899
S'PFD0830w'
p4900
atp4901
Rp4902
sg1413
g1667
((lp4903
S'PF13_0229'
p4904
atp4905
Rp4906
sg1415
(lp4907
sg1416
(lp4908
sg1417
(lp4909
sg1418
g1667
((lp4910
S'PFB0130w'
p4911
atp4912
Rp4913
sg1420
g1667
((lp4914
g1912
ag1826
atp4915
Rp4916
sg1422
g1667
((lp4917
g2021
atp4918
Rp4919
sg1424
(lp4920
sg1425
g1667
((lp4921
S'PFC0995c'
p4922
atp4923
Rp4924
sg1427
g1667
((lp4925
S'PFC0995c'
p4926
atp4927
Rp4928
sg1429
(lp4929
sg1430
(lp4930
sg1431
g1667
((lp4931
S'PFE0225w'
p4932
aS'PFC0170c'
p4933
aS'PF08_0066'
p4934
aS'PFL1550w'
p4935
atp4936
Rp4937
sg1433
g1667
((lp4938
S'PFB0200c'
p4939
atp4940
Rp4941
sg1435
(lp4942
sg1436
g1667
((lp4943
g1800
atp4944
Rp4945
sg1438
g1667
((lp4946
S'PFL0305c'
p4947
atp4948
Rp4949
sg1440
(lp4950
sg1441
(lp4951
sg1442
(lp4952
sg1443
g1667
((lp4953
S'PFL0420w'
p4954
aS'PF11_0334'
p4955
aS'PFE0775c'
p4956
aS'PFL1515c'
p4957
aS'PFF1430c'
p4958
aS'PFB0435c'
p4959
atp4960
Rp4961
sg1445
(lp4962
sg1446
g1667
((lp4963
S'PF13_0269'
p4964
atp4965
Rp4966
sg1448
g1667
((lp4967
S'PFL0420w'
p4968
aS'PF11_0334'
p4969
aS'PFE0775c'
p4970
aS'PFL1515c'
p4971
aS'PFF1430c'
p4972
aS'PFB0435c'
p4973
atp4974
Rp4975
sg1450
g1667
((lp4976
S'PFL2465c'
p4977
atp4978
Rp4979
sg1452
g1667
((lp4980
S'MAL13P1_335'
p4981
atp4982
Rp4983
sg1454
g1667
((lp4984
S'PF13_0170'
p4985
atp4986
Rp4987
sg1456
(lp4988
sg1457
g1667
((lp4989
S'PF11_0295'
p4990
atp4991
Rp4992
sg1459
g1667
((lp4993
g1880
atp4994
Rp4995
sg1461
g1667
((lp4996
S'PF13_0100'
p4997
aS'PFL0620c'
p4998
atp4999
Rp5000
sg1463
(lp5001
sg1464
g1667
((lp5002
S'PFB0505c'
p5003
atp5004
Rp5005
sg1466
(lp5006
sg1467
(lp5007
sg1468
(lp5008
sg1469
g1667
((lp5009
g1822
atp5010
Rp5011
sg1471
(lp5012
sg1472
g1667
((lp5013
S'PFL0420w'
p5014
aS'PF11_0334'
p5015
aS'PFE0775c'
p5016
aS'PFL1515c'
p5017
aS'PFF1430c'
p5018
aS'PFB0435c'
p5019
atp5020
Rp5021
sg1474
g1667
((lp5022
g1892
atp5023
Rp5024
sg1476
g1667
((lp5025
S'PFL0770w'
p5026
aS'PF07_0073'
p5027
atp5028
Rp5029
sg1478
g1667
((lp5030
g1885
ag1981
atp5031
Rp5032
sg1480
g1667
((lp5033
S'PF13_0229'
p5034
atp5035
Rp5036
sg1482
(lp5037
sg1483
g1667
((lp5038
g1993
ag1804
atp5039
Rp5040
sg1485
g1667
((lp5041
g1724
atp5042
Rp5043
sg1487
(lp5044
sg1488
(lp5045
sg1489
g1667
((lp5046
S'PFB0505c'
p5047
aS'PFF1275c'
p5048
atp5049
Rp5050
sg1491
(lp5051
sg1492
g1667
((lp5052
g1740
ag1682
atp5053
Rp5054
sg1494
g1667
((lp5055
S'PF07_0005'
p5056
aS'PF14_0737'
p5057
aS'PF14_0017'
p5058
aS'PF10_0379'
p5059
aS'PF07_0040'
p5060
aS'PF14_0738'
p5061
atp5062
Rp5063
sg1496
(lp5064
sg1497
g1667
((lp5065
S'PFL0420w'
p5066
aS'PF11_0334'
p5067
aS'PFE0775c'
p5068
aS'PFL1515c'
p5069
aS'PFF1430c'
p5070
aS'PFB0435c'
p5071
atp5072
Rp5073
sg1499
(lp5074
sg1500
g1667
((lp5075
S'PFI1485c'
p5076
aS'PF14_0681'
p5077
atp5078
Rp5079
sg1502
g1667
((lp5080
S'PFL0420w'
p5081
aS'PF11_0334'
p5082
aS'PFE0775c'
p5083
aS'PFL1515c'
p5084
aS'PFF1430c'
p5085
aS'PFB0435c'
p5086
atp5087
Rp5088
sg1504
(lp5089
sg1505
g1667
((lp5090
g1879
ag1915
atp5091
Rp5092
sg1507
g1667
((lp5093
S'PF08_0071'
p5094
aS'PFF1130c'
p5095
atp5096
Rp5097
sg1509
g1667
((lp5098
S'PFF1360w'
p5099
atp5100
Rp5101
sg1511
g1667
((lp5102
S'PFL0305c'
p5103
atp5104
Rp5105
sg1513
(lp5106
sg1514
g1667
((lp5107
S'PF13_0128'
p5108
atp5109
Rp5110
sg1516
g1667
((lp5111
S'PF07_0005'
p5112
aS'PF14_0737'
p5113
aS'PF14_0017'
p5114
aS'PF10_0379'
p5115
aS'PF07_0040'
p5116
aS'PF14_0738'
p5117
atp5118
Rp5119
sg1518
g1667
((lp5120
S'PFI1125c'
p5121
aS'PFB0505c'
p5122
atp5123
Rp5124
sg1520
(lp5125
sg1521
g1667
((lp5126
S'PFI0735c'
p5127
atp5128
Rp5129
sg1523
(lp5130
sg1524
(lp5131
sg1525
g1667
((lp5132
S'MAL8P1_32'
p5133
aS'PFA0160c'
p5134
aS'PF14_0662'
p5135
aS'PF13_0252'
p5136
atp5137
Rp5138
sg1527
g1667
((lp5139
S'PFI1485c'
p5140
aS'PF14_0681'
p5141
atp5142
Rp5143
sg1529
g1667
((lp5144
g2012
atp5145
Rp5146
sg1531
(lp5147
sg1532
g1667
((lp5148
S'PF10_0121'
p5149
atp5150
Rp5151
sg1534
(lp5152
sg1535
g1667
((lp5153
g1728
atp5154
Rp5155
sg1537
(lp5156
sg1538
g1667
((lp5157
S'PFI1125c'
p5158
atp5159
Rp5160
sg1540
g1667
((lp5161
S'PFF1350c'
p5162
atp5163
Rp5164
sg1542
g1667
((lp5165
S'PF07_0005'
p5166
aS'PF14_0737'
p5167
aS'PF14_0017'
p5168
aS'PF10_0379'
p5169
aS'PF07_0040'
p5170
aS'PF14_0738'
p5171
atp5172
Rp5173
sg1544
g1667
((lp5174
S'PF07_0005'
p5175
aS'PF14_0737'
p5176
aS'PF14_0017'
p5177
aS'PF10_0379'
p5178
aS'PF07_0040'
p5179
aS'PF14_0738'
p5180
atp5181
Rp5182
sg1546
(lp5183
sg1547
(lp5184
sg1548
g1667
((lp5185
g1795
atp5186
Rp5187
sg1550
g1667
((lp5188
S'MAL8P1_58'
p5189
atp5190
Rp5191
sg1552
g1667
((lp5192
S'MAL8P1_58'
p5193
atp5194
Rp5195
sg1554
(lp5196
sg1555
g1667
((lp5197
S'PF14_0751'
p5198
aS'PFC0050c'
p5199
aS'PFE1250w'
p5200
aS'PFB0685c'
p5201
aS'PFF0945c'
p5202
aS'MAL13P1_485'
p5203
aS'PFL1880w'
p5204
aS'PFB0695c'
p5205
aS'PF14_0761'
p5206
aS'PFD0085c'
p5207
aS'PFL2570w'
p5208
aS'PF07_0129'
p5209
atp5210
Rp5211
sg1557
g1667
((lp5212
S'PFF1375c'
p5213
atp5214
Rp5215
sg1559
g1667
((lp5216
S'MAL13P1_218'
p5217
atp5218
Rp5219
sg1561
g1667
((lp5220
g1917
ag1909
ag1824
ag1934
ag1996
ag1930
ag1781
atp5221
Rp5222
sg1563
g1667
((lp5223
S'PFI1125c'
p5224
aS'PFB0505c'
p5225
atp5226
Rp5227
sg1565
(lp5228
sg1566
(lp5229
sg1567
(lp5230
sg1568
g1667
((lp5231
g1700
atp5232
Rp5233
sg1570
g1667
((lp5234
g1813
atp5235
Rp5236
sg1572
g1667
((lp5237
S'PF08_0095'
p5238
atp5239
Rp5240
sg1574
g1667
((lp5241
S'PF07_0005'
p5242
aS'PF14_0737'
p5243
aS'PF14_0017'
p5244
aS'PF10_0379'
p5245
aS'PF07_0040'
p5246
aS'PF14_0738'
p5247
atp5248
Rp5249
sg1576
g1667
((lp5250
S'PFI0880c'
p5251
atp5252
Rp5253
sg1578
(lp5254
sg1579
g1667
((lp5255
g2005
atp5256
Rp5257
sg1581
g1667
((lp5258
g2034
atp5259
Rp5260
sg1583
g1667
((lp5261
S'PF14_0557'
p5262
atp5263
Rp5264
sg1585
(lp5265
sg1586
g1667
((lp5266
S'PF13_0044'
p5267
atp5268
Rp5269
sg1588
g1667
((lp5270
S'PFF0730c'
p5271
atp5272
Rp5273
sg1590
(lp5274
sg1591
(lp5275
sg1592
g1667
((lp5276
S'PF14_0508'
p5277
atp5278
Rp5279
sg1594
g1667
((lp5280
S'PF14_0097'
p5281
atp5282
Rp5283
sg1596
g1667
((lp5284
S'PF13_0128'
p5285
atp5286
Rp5287
sg1598
(lp5288
sg1599
(lp5289
sg1600
(lp5290
sg1601
(lp5291
sg1602
g1667
((lp5292
g1950
atp5293
Rp5294
sg1604
g1667
((lp5295
S'PF07_0005'
p5296
aS'PF14_0737'
p5297
aS'PF14_0017'
p5298
aS'PF10_0379'
p5299
aS'PF07_0040'
p5300
aS'PF14_0738'
p5301
atp5302
Rp5303
sg1606
g1667
((lp5304
S'PF07_0005'
p5305
aS'PF14_0737'
p5306
aS'PF14_0017'
p5307
aS'PF10_0379'
p5308
aS'PF07_0040'
p5309
aS'PF14_0738'
p5310
atp5311
Rp5312
sg1608
g1667
((lp5313
g1900
atp5314
Rp5315
sg1610
g1667
((lp5316
g1926
atp5317
Rp5318
sg1612
g1667
((lp5319
S'PFF0730c'
p5320
atp5321
Rp5322
sg1614
(lp5323
sg1615
(lp5324
sg1616
g1667
((lp5325
S'PF10_0289'
p5326
atp5327
Rp5328
sg1618
g1667
((lp5329
S'PF10_0275'
p5330
atp5331
Rp5332
sg1620
g1667
((lp5333
S'PFF0730c'
p5334
atp5335
Rp5336
sg1622
(lp5337
sg1623
(lp5338
sg1624
g1667
((lp5339
g1763
atp5340
Rp5341
sg1626
g1667
((lp5342
S'PFC0995c'
p5343
atp5344
Rp5345
sg1628
g1667
((lp5346
g1962
atp5347
Rp5348
sg1630
g1667
((lp5349
S'PF07_0005'
p5350
aS'PF14_0737'
p5351
aS'PF14_0017'
p5352
aS'PF10_0379'
p5353
aS'PF07_0040'
p5354
aS'PF14_0738'
p5355
atp5356
Rp5357
sg1632
g1667
((lp5358
g1844
atp5359
Rp5360
sg1634
(lp5361
sg1635
g1667
((lp5362
S'PF14_0511'
p5363
atp5364
Rp5365
sg1637
g1667
((lp5366
S'PFB0505c'
p5367
aS'PFF1275c'
p5368
atp5369
Rp5370
sg1639
g1667
((lp5371
g1702
atp5372
Rp5373
sg1641
g1667
((lp5374
S'PF14_0297'
p5375
atp5376
Rp5377
sg1643
g1667
((lp5378
S'PFL0420w'
p5379
aS'PF11_0334'
p5380
aS'PFE0775c'
p5381
aS'PFL1515c'
p5382
aS'PFF1430c'
p5383
aS'PFB0435c'
p5384
atp5385
Rp5386
sg1645
g1667
((lp5387
S'PFL0305c'
p5388
atp5389
Rp5390
sg1647
g1667
((lp5391
g1959
atp5392
Rp5393
sg1649
(lp5394
sg1650
(lp5395
sg1651
g1667
((lp5396
S'PF13_0128'
p5397
atp5398
Rp5399
sg1653
g1667
((lp5400
S'PFC0995c'
p5401
atp5402
Rp5403
sg1655
g1667
((lp5404
S'PFI1370c'
p5405
atp5406
Rp5407
sg1657
g1667
((lp5408
S'PF07_0005'
p5409
aS'PF14_0737'
p5410
aS'PF14_0017'
p5411
aS'PF10_0379'
p5412
aS'PF07_0040'
p5413
aS'PF14_0738'
p5414
atp5415
Rp5416
sg1659
(lp5417
sg1660
(lp5418
sg1661
(lp5419
sg1662
g1667
((lp5420
S'PFI1370c'
p5421
atp5422
Rp5423
sg1664
(lp5424
sg1665
(lp5425
ssb.